 CourseworkBase

 Timestamp is 5dcae120 (Tue Nov 12 16:43:12 2019)

 Preferred load address is 00400000

 Start         Length     Name                   Class
 0001:00000000 00004e50H .text$di                CODE
 0001:00004e50 0002c200H .text$mn                CODE
 0001:00031050 00002815H .text$x                 CODE
 0001:00033865 0000100cH .text$yd                CODE
 0002:00000000 00000104H .CRT$XCA                DATA
 0002:00000104 00000104H .CRT$XCAA               DATA
 0002:00000208 00000104H .CRT$XCL                DATA
 0002:0000030c 00000104H .CRT$XCZ                DATA
 0002:00000410 00000104H .CRT$XIA                DATA
 0002:00000514 00000104H .CRT$XIAA               DATA
 0002:00000618 00000104H .CRT$XIAC               DATA
 0002:0000071c 00000104H .CRT$XIZ                DATA
 0002:00000820 00000104H .CRT$XPA                DATA
 0002:00000924 00000104H .CRT$XPZ                DATA
 0002:00000a28 00000104H .CRT$XTA                DATA
 0002:00000b2c 00000104H .CRT$XTZ                DATA
 0002:00000c30 00001ae4H .rdata                  DATA
 0002:00002714 000013acH .rdata$r                DATA
 0002:00003ac0 000002f0H .rdata$sxdata           DATA
 0002:00003db0 0000019cH .rdata$zzzdbg           DATA
 0002:00003f4c 00000104H .rtc$IAA                DATA
 0002:00004050 00000104H .rtc$IZZ                DATA
 0002:00004154 00000104H .rtc$TAA                DATA
 0002:00004258 00000108H .rtc$TZZ                DATA
 0002:00004360 00001a2fH .xdata$x                DATA
 0002:00005d8f 00000000H .edata                  DATA
 0003:00000000 00000130H .data                   DATA
 0003:00000130 000008c8H .data$r                 DATA
 0003:000009f8 00000470H .bss                    DATA
 0004:00000000 000005f0H .idata$5                DATA
 0004:000005f0 0000012cH .idata$2                DATA
 0004:0000071c 00000014H .idata$3                DATA
 0004:00000730 000005f0H .idata$4                DATA
 0004:00000d20 00001b54H .idata$6                DATA
 0005:00000000 00000104H .00cfg                  DATA
 0006:00000000 00000170H .rsrc$01                DATA
 0006:00000170 000002ccH .rsrc$02                DATA

  Address         Publics by Value              Rva+Base       Lib:Object

 0000:00000000       ___guard_fids_count        00000000     <absolute>
 0000:00000000       ___guard_longjmp_table     00000000     <absolute>
 0000:00000000       ___enclave_config          00000000     <absolute>
 0000:00000000       ___hybrid_auxiliary_iat    00000000     <absolute>
 0000:00000000       ___guard_fids_table        00000000     <absolute>
 0000:00000000       ___hybrid_code_map_count   00000000     <absolute>
 0000:00000000       ___guard_iat_count         00000000     <absolute>
 0000:00000000       ___volatile_metadata       00000000     <absolute>
 0000:00000000       ___guard_iat_table         00000000     <absolute>
 0000:00000000       ___hybrid_code_map         00000000     <absolute>
 0000:00000000       ___dynamic_value_reloc_table 00000000     <absolute>
 0000:00000000       ___guard_longjmp_count     00000000     <absolute>
 0000:00000067       ___safe_se_handler_count   00000067     <absolute>
 0000:00000100       ___guard_flags             00000100     <absolute>
 0000:00000000       ___ImageBase               00400000     <linker-defined>
 0001:00004e50       ??0BouncingObject@@QAE@PAVGame@@@Z 00405e50 f   BouncingObject.obj
 0001:00004f40       ??1BouncingObject@@UAE@XZ  00405f40 f   BouncingObject.obj
 0001:00004f60       ?Draw@BouncingObject@@UAEXXZ 00405f60 f   BouncingObject.obj
 0001:00005030       ?DoUpdate@BouncingObject@@UAEXH@Z 00406030 f   BouncingObject.obj
 0001:00005170       ??_EBouncingObject@@UAEPAXI@Z 00406170 f i BouncingObject.obj
 0001:00005170       ??_GBouncingObject@@UAEPAXI@Z 00406170 f i BouncingObject.obj
 0001:000051b0       ?DrawScreenOval@BaseEngine@@QAEXHHHHI@Z 004061b0 f i BouncingObject.obj
 0001:000051f0       ?GetIntsPerScreenRow@BaseEngine@@IBEHPAUSDL_Surface@@@Z 004061f0 f i BouncingObject.obj
 0001:00005210       ?IsVisible@DisplayableObject@@QBE_NXZ 00406210 f i BouncingObject.obj
 0001:00005230       ?Notify@DisplayableObject@@UAEJH@Z 00406230 f i BouncingObject.obj
 0001:00005250       ?SafeGetBackgroundPixel@BaseEngine@@QBEIHH@Z 00406250 f i BouncingObject.obj
 0001:00005280       ?SafeGetPixel@BaseEngine@@QBEIHHPAUSDL_Surface@@@Z 00406280 f i BouncingObject.obj
 0001:00005300       ?SetVisible@DisplayableObject@@QAEX_N@Z 00406300 f i BouncingObject.obj
 0001:00005320       ??0Enemy@@QAE@PAVGame@@PAVGameMain@@HH@Z 00406320 f   Enemy.obj
 0001:00005560       ??1Enemy@@UAE@XZ           00406560 f   Enemy.obj
 0001:00005580       ?Draw@Enemy@@UAEXXZ        00406580 f   Enemy.obj
 0001:00005850       ?DoUpdate@Enemy@@UAEXH@Z   00406850 f   Enemy.obj
 0001:00005cd0       ?calcSpeed@Enemy@@QAEXXZ   00406cd0 f   Enemy.obj
 0001:00005d20       ?damageRecieved@Enemy@@QAEXH@Z 00406d20 f   Enemy.obj
 0001:00005d50       ?updateEnemy@Enemy@@QAEXXZ 00406d50 f   Enemy.obj
 0001:000060f0       ??_EEnemy@@UAEPAXI@Z       004070f0 f i Enemy.obj
 0001:000060f0       ??_GEnemy@@UAEPAXI@Z       004070f0 f i Enemy.obj
 0001:00006130       ?DrawScreenPolygon@BaseEngine@@QAEXNNNNNNNNI@Z 00407130 f i Enemy.obj
 0001:000061f0       ?GetEngine@DisplayableObject@@QBEPAVBaseEngine@@XZ 004071f0 f i Enemy.obj
 0001:00006210       ?Redraw@BaseEngine@@QAEX_N@Z 00407210 f i Enemy.obj
 0001:00006240       ?RedrawObjects@DisplayableObject@@QAEXXZ 00407240 f i Enemy.obj
 0001:00006260       ?calcFrac@Enemy@@QAEXN@Z   00407260 f i Enemy.obj
 0001:00006370       ?ceil@@YAMM@Z              00407370 f i Enemy.obj
 0001:00006390       ?floor@@YAMM@Z             00407390 f i Enemy.obj
 0001:000063b0       ?gcd@Enemy@@QAEJJJ@Z       004073b0 f i Enemy.obj
 0001:00006420       ?takeXlives@GameMain@@QAEXH@Z 00407420 f i Enemy.obj
 0001:00006450       _ceilf                     00407450 f i Enemy.obj
 0001:00006480       _floorf                    00407480 f i Enemy.obj
 0001:000064b0       ?SetupBackgroundBuffer@Game@@UAEXXZ 004074b0 f   Game.obj
 0001:000064c0       ?InitialiseObjects@Game@@UAEHXZ 004074c0 f   Game.obj
 0001:00006570       ?GameAction@Game@@UAEXXZ   00407570 f   Game.obj
 0001:000065b0       ?MouseDown@Game@@UAEXHHH@Z 004075b0 f   Game.obj
 0001:000065e0       ?KeyDown@Game@@UAEXH@Z     004075e0 f   Game.obj
 0001:00006600       ?KeyUp@Game@@UAEXH@Z       00407600 f   Game.obj
 0001:00006680       ?DrawableObjectsChanged@BaseEngine@@QAEXXZ 00407680 f i Game.obj
 0001:000066a0       ?IsTimeToAct@BaseEngine@@QBE_NXZ 004076a0 f i Game.obj
 0001:000066e0       ?SetTimeToAct@BaseEngine@@QAEXH@Z 004076e0 f i Game.obj
 0001:00006710       ??1GameMain@@QAE@XZ        00407710 f   GameMain.obj
 0001:00006740       ?GetNextTileDir@GameMain@@QAEHHHHH@Z 00407740 f   GameMain.obj
 0001:00006870       ?GetTile@GameMain@@QAEHHH@Z 00407870 f   GameMain.obj
 0001:000068b0       ?drawHud@GameMain@@QAEXXZ  004078b0 f   GameMain.obj
 0001:00006ec0       ?drawRanges@GameMain@@QAEXXZ 00407ec0 f   GameMain.obj
 0001:00006fd0       ?calcScoreAndMoney@GameMain@@QAEXH@Z 00407fd0 f   GameMain.obj
 0001:00007010       ?waveOverScoreMoney@GameMain@@QAEXH@Z 00408010 f   GameMain.obj
 0001:00007080       ?getTarget@GameMain@@QAEPAVEnemy@@HHH@Z 00408080 f   GameMain.obj
 0001:00007170       ?collision@GameMain@@QAE_NHHHHHH@Z 00408170 f   GameMain.obj
 0001:000071f0       ?calculateAllCollisions@GameMain@@QAEXXZ 004081f0 f   GameMain.obj
 0001:000073a0       ?storeInProjectileVector@GameMain@@QAEXPAVProjectileBasic@@@Z 004083a0 f   GameMain.obj
 0001:000073c0       ?getFromProjectileVector@GameMain@@QAEPAVProjectileBasic@@H@Z 004083c0 f   GameMain.obj
 0001:00007400       ?eraseFromProjectileVector@GameMain@@QAEXPAVProjectileBasic@@@Z 00408400 f   GameMain.obj
 0001:000077b0       ??$_Adl_verify_range1@V?$_Vector_iterator@V?$_Vector_val@U?$_Simple_types@PAVProjectileBasic@@@std@@@std@@@std@@V12@@std@@YAXABV?$_Vector_iterator@V?$_Vector_val@U?$_Simple_types@PAVProjectileBasic@@@std@@@std@@@0@0U?$integral_constant@_N$0A@@0@@Z 004087b0 f i GameMain.obj
 0001:000077c0       ??$_Adl_verify_range@V?$_Vector_iterator@V?$_Vector_val@U?$_Simple_types@PAVProjectileBasic@@@std@@@std@@@std@@V12@@std@@YAXABV?$_Vector_iterator@V?$_Vector_val@U?$_Simple_types@PAVProjectileBasic@@@std@@@std@@@0@0@Z 004087c0 f i GameMain.obj
 0001:000077f0       ??$_Allocate@$07U_Default_allocate_traits@std@@$0A@@std@@YAPAXI@Z 004087f0 f i GameMain.obj
 0001:00007830       ??$_Allocate_manually_vector_aligned@U_Default_allocate_traits@std@@@std@@YAPAXI@Z 00408830 f i GameMain.obj
 0001:000078b0       ??$_Const_cast@QAVProjectileBasic@@@std@@YA@PBQAVProjectileBasic@@@Z 004088b0 f i GameMain.obj
 0001:000078c0       ??$_Copy_memmove@PAPAVProjectileBasic@@PAPAV1@@std@@YAPAPAVProjectileBasic@@PAPAV1@00@Z 004088c0 f i GameMain.obj
 0001:00007910       ??$_Deallocate@$07$0A@@std@@YAXPAXI@Z 00408910 f i GameMain.obj
 0001:00007950       ??$_Destroy_range1@V?$allocator@PAVProjectileBasic@@@std@@@std@@YAXPAPAVProjectileBasic@@0AAV?$allocator@PAVProjectileBasic@@@0@U?$integral_constant@_N$00@0@@Z 00408950 f i GameMain.obj
 0001:00007960       ??$_Destroy_range@V?$allocator@PAVProjectileBasic@@@std@@@std@@YAXPAPAVProjectileBasic@@0AAV?$allocator@PAVProjectileBasic@@@0@@Z 00408960 f i GameMain.obj
 0001:00007990       ??$_Emplace_back_with_unused_capacity@ABQAVProjectileBasic@@@?$vector@PAVProjectileBasic@@V?$allocator@PAVProjectileBasic@@@std@@@std@@AAE@ABQAVProjectileBasic@@@Z 00408990 f i GameMain.obj
 0001:00007a40       ??$_Emplace_reallocate@ABQAVProjectileBasic@@@?$vector@PAVProjectileBasic@@V?$allocator@PAVProjectileBasic@@@std@@@std@@QAEPAPAVProjectileBasic@@QAPAV2@ABQAV2@@Z 00408a40 f i GameMain.obj
 0001:00007c90       ??$_Find_unchecked1@PAPAVProjectileBasic@@PAV1@@std@@YAPAPAVProjectileBasic@@PAPAV1@QAPAV1@ABQAV1@U?$integral_constant@_N$0A@@0@@Z 00408c90 f i GameMain.obj
 0001:00007cd0       ??$_Find_unchecked@PAPAVProjectileBasic@@PAV1@@std@@YAPAPAVProjectileBasic@@QAPAV1@0ABQAV1@@Z 00408cd0 f i GameMain.obj
 0001:00007d00       ??$_Get_size_of_n@$03@std@@YAII@Z 00408d00 f i GameMain.obj
 0001:00007d40       ??$_Get_unwrapped@PAVProjectileBasic@@@std@@YAPAPAVProjectileBasic@@QAPAV1@@Z 00408d40 f i GameMain.obj
 0001:00007d50       ??$_Get_unwrapped@V?$_Vector_iterator@V?$_Vector_val@U?$_Simple_types@PAVProjectileBasic@@@std@@@std@@@std@@$0A@@std@@YA@ABV?$_Vector_iterator@V?$_Vector_val@U?$_Simple_types@PAVProjectileBasic@@@std@@@std@@@0@@Z 00408d50 f i GameMain.obj
 0001:00007d60       ??$_Get_unwrapped_n@PAVProjectileBasic@@H$0A@@std@@YAPAPAVProjectileBasic@@QAPAV1@H@Z 00408d60 f i GameMain.obj
 0001:00007d70       ??$_Idl_distance1@PAPAVProjectileBasic@@PAPAV1@@std@@YAHABQAPAVProjectileBasic@@0Urandom_access_iterator_tag@0@@Z 00408d70 f i GameMain.obj
 0001:00007d90       ??$_Idl_distance@PAPAVProjectileBasic@@PAPAV1@@std@@YA@ABQAPAVProjectileBasic@@0@Z 00408d90 f i GameMain.obj
 0001:00007dc0       ??$_Min_value@I@std@@YAABIABI0@Z 00408dc0 f i GameMain.obj
 0001:00007e00       ??$_Move_unchecked1@PAPAVProjectileBasic@@PAPAV1@@std@@YAPAPAVProjectileBasic@@PAPAV1@00U_Trivially_copyable_ptr_iterator_tag@0@@Z 00408e00 f i GameMain.obj
 0001:00007e20       ??$_Move_unchecked@PAPAVProjectileBasic@@PAPAV1@@std@@YAPAPAVProjectileBasic@@PAPAV1@00@Z 00408e20 f i GameMain.obj
 0001:00007e70       ??$_Ptr_move_cat@PAVProjectileBasic@@PAV1@@std@@YA?AU_Really_trivial_ptr_iterator_tag@0@ABQAPAVProjectileBasic@@0@Z 00408e70 f i GameMain.obj
 0001:00007e80       ??$_Seek_wrapped@PAVProjectileBasic@@@std@@YAXAAPAPAVProjectileBasic@@QAPAV1@@Z 00408e80 f i GameMain.obj
 0001:00007e90       ??$_Seek_wrapped@V?$_Vector_iterator@V?$_Vector_val@U?$_Simple_types@PAVProjectileBasic@@@std@@@std@@@std@@PAPAVProjectileBasic@@$0A@@std@@YAXAAV?$_Vector_iterator@V?$_Vector_val@U?$_Simple_types@PAVProjectileBasic@@@std@@@std@@@0@ABQAPAVProjectileBasic@@@Z 00408e90 f i GameMain.obj
 0001:00007eb0       ??$_Unfancy@PAVProjectileBasic@@@std@@YAPAPAVProjectileBasic@@PAPAV1@@Z 00408eb0 f i GameMain.obj
 0001:00007ec0       ??$_Uninitialized_move@PAPAVProjectileBasic@@PAPAV1@V?$allocator@PAVProjectileBasic@@@std@@@std@@YAPAPAVProjectileBasic@@QAPAV1@0PAPAV1@AAV?$allocator@PAVProjectileBasic@@@0@@Z 00408ec0 f i GameMain.obj
 0001:00007f80       ??$_Uninitialized_move_al_unchecked@PAVProjectileBasic@@PAV1@V?$allocator@PAVProjectileBasic@@@std@@@std@@YAPAPAVProjectileBasic@@QAPAV1@00AAV?$allocator@PAVProjectileBasic@@@0@U_Really_trivial_ptr_iterator_tag@0@U?$integral_constant@_N$00@0@@Z 00408f80 f i GameMain.obj
 0001:00007fa0       ??$addressof@V?$_Vector_val@U?$_Simple_types@PAVProjectileBasic@@@std@@@std@@@std@@YAPAV?$_Vector_val@U?$_Simple_types@PAVProjectileBasic@@@std@@@0@AAV10@@Z 00408fa0 f i GameMain.obj
 0001:00007fb0       ??$construct@PAVProjectileBasic@@ABQAV1@@?$_Default_allocator_traits@V?$allocator@PAVProjectileBasic@@@std@@@std@@SAXAAV?$allocator@PAVProjectileBasic@@@1@QAPAVProjectileBasic@@ABQAV3@@Z 00408fb0 f i GameMain.obj
 0001:00007ff0       ??$destroy@PAVProjectileBasic@@@?$_Default_allocator_traits@V?$allocator@PAVProjectileBasic@@@std@@@std@@SAXAAV?$allocator@PAVProjectileBasic@@@1@QAPAVProjectileBasic@@@Z 00408ff0 f i GameMain.obj
 0001:00008000       ??$emplace_back@ABQAVProjectileBasic@@@?$vector@PAVProjectileBasic@@V?$allocator@PAVProjectileBasic@@@std@@@std@@QAE@ABQAVProjectileBasic@@@Z 00409000 f i GameMain.obj
 0001:00008070       ??$forward@ABQAVProjectileBasic@@@std@@YAABQAVProjectileBasic@@ABQAV1@@Z 00409070 f i GameMain.obj
 0001:00008080       ??$move@AAPAVProjectileBasic@@@std@@YA$$QAPAVProjectileBasic@@AAPAV1@@Z 00409080 f i GameMain.obj
 0001:00008090       ??$pow@HHX@@YANHH@Z        00409090 f i GameMain.obj
 0001:000080c0       ??$remove@V?$_Vector_iterator@V?$_Vector_val@U?$_Simple_types@PAVProjectileBasic@@@std@@@std@@@std@@PAVProjectileBasic@@@std@@YA?AV?$_Vector_iterator@V?$_Vector_val@U?$_Simple_types@PAVProjectileBasic@@@std@@@std@@@0@V10@V10@ABQAVProjectileBasic@@@Z 004090c0 f i GameMain.obj
 0001:000081a0       ??0?$_Vector_const_iterator@V?$_Vector_val@U?$_Simple_types@PAVProjectileBasic@@@std@@@std@@@std@@QAE@PAPAVProjectileBasic@@PBU_Container_base0@1@@Z 004091a0 f i GameMain.obj
 0001:000081d0       ??0?$_Vector_iterator@V?$_Vector_val@U?$_Simple_types@PAVProjectileBasic@@@std@@@std@@@std@@QAE@PAPAVProjectileBasic@@PBU_Container_base0@1@@Z 004091d0 f i GameMain.obj
 0001:00008200       ??0MapTileManager@@QAE@ABV0@@Z 00409200 f i GameMain.obj
 0001:00008250       ??0TileManager@@QAE@ABV0@@Z 00409250 f i GameMain.obj
 0001:000082e0       ??1?$vector@PAVProjectileBasic@@V?$allocator@PAVProjectileBasic@@@std@@@std@@QAE@XZ 004092e0 f i GameMain.obj
 0001:00008330       ??2@YAPAXIPAX@Z            00409330 f i GameMain.obj
 0001:00008340       ??A?$vector@PAVProjectileBasic@@V?$allocator@PAVProjectileBasic@@@std@@@std@@QAEAAPAVProjectileBasic@@I@Z 00409340 f i GameMain.obj
 0001:00008370       ?DrawAllTiles@TileManager@@QBEXPAVBaseEngine@@PAUSDL_Surface@@HHHH@Z 00409370 f i GameMain.obj
 0001:000083c0       ?DrawScreenHollowOval@BaseEngine@@QAEXHHHHHHHHI@Z 004093c0 f i GameMain.obj
 0001:00008410       ?DrawScreenLine@BaseEngine@@QAEXHHHHI@Z 00409410 f i GameMain.obj
 0001:00008480       ?DrawScreenRectangle@BaseEngine@@QAEXHHHHI@Z 00409480 f i GameMain.obj
 0001:000084c0       ?DrawScreenString@BaseEngine@@QAEXHHPBDIPAVFont@@@Z 004094c0 f i GameMain.obj
 0001:00008500       ?DrawScreenTriangle@BaseEngine@@QAEXHHHHHHI@Z 00409500 f i GameMain.obj
 0001:00008590       ?DrawTile@TileManager@@UBEXPAVBaseEngine@@PAUSDL_Surface@@HH@Z 00409590 f i GameMain.obj
 0001:00008600       ?DrawTile@TileManager@@UBEXPAVBaseEngine@@PAUSDL_Surface@@HHHH@Z 00409600 f i GameMain.obj
 0001:00008650       ?GetBackground@BaseEngine@@QAEPAUSDL_Surface@@XZ 00409650 f i GameMain.obj
 0001:00008670       ?GetFont@BaseEngine@@QAEPAVFont@@PADH@Z 00409670 f i GameMain.obj
 0001:000086a0       ?GetScreenWidth@BaseEngine@@QBEHXZ 004096a0 f i GameMain.obj
 0001:000086c0       ?GetTileHeight@TileManager@@QBEHXZ 004096c0 f i GameMain.obj
 0001:000086e0       ?GetTileWidth@TileManager@@QBEHXZ 004096e0 f i GameMain.obj
 0001:00008700       ?KeyBoardInputDown@GameMain@@UAEXH@Z 00409700 f i GameMain.obj
 0001:00008750       ?KeyBoardInputUp@GameState@@UAEXH@Z 00409750 f i GameMain.obj
 0001:00008760       ?MouseInput@GameMain@@UAEXHHH@Z 00409760 f i GameMain.obj
 0001:00008d70       ?SetSize@TileManager@@QAEXHH@Z 00409d70 f i GameMain.obj
 0001:00008e20       ?SetValue@TileManager@@QAEXHHH@Z 00409e20 f i GameMain.obj
 0001:00008e50       ?_Adjust_manually_vector_aligned@std@@YAXAAPAXAAI@Z 00409e50 f i GameMain.obj
 0001:00008ed0       ?_Adopt@_Iterator_base0@std@@QAEXPBX@Z 00409ed0 f i GameMain.obj
 0001:00008ee0       ?_Allocate@_Default_allocate_traits@std@@SAPAXI@Z 00409ee0 f i GameMain.obj
 0001:00008f00       ?_Calculate_growth@?$vector@PAVProjectileBasic@@V?$allocator@PAVProjectileBasic@@@std@@@std@@ABEII@Z 00409f00 f i GameMain.obj
 0001:00008f70       ?_Change_array@?$vector@PAVProjectileBasic@@V?$allocator@PAVProjectileBasic@@@std@@@std@@AAEXQAPAVProjectileBasic@@II@Z 00409f70 f i GameMain.obj
 0001:00009030       ?_Destroy@?$vector@PAVProjectileBasic@@V?$allocator@PAVProjectileBasic@@@std@@@std@@AAEXPAPAVProjectileBasic@@0@Z 0040a030 f i GameMain.obj
 0001:00009060       ?_Get_data@?$_Vector_alloc@U?$_Vec_base_types@PAVProjectileBasic@@V?$allocator@PAVProjectileBasic@@@std@@@std@@@std@@QAEAAV?$_Vector_val@U?$_Simple_types@PAVProjectileBasic@@@std@@@2@XZ 0040a060 f i GameMain.obj
 0001:00009080       ?_Get_data@?$_Vector_alloc@U?$_Vec_base_types@PAVProjectileBasic@@V?$allocator@PAVProjectileBasic@@@std@@@std@@@std@@QBEABV?$_Vector_val@U?$_Simple_types@PAVProjectileBasic@@@std@@@2@XZ 0040a080 f i GameMain.obj
 0001:000090a0       ?_Get_first@?$_Compressed_pair@V?$allocator@PAVProjectileBasic@@@std@@V?$_Vector_val@U?$_Simple_types@PAVProjectileBasic@@@std@@@2@$00@std@@QAEAAV?$allocator@PAVProjectileBasic@@@2@XZ 0040a0a0 f i GameMain.obj
 0001:000090c0       ?_Get_first@?$_Compressed_pair@V?$allocator@PAVProjectileBasic@@@std@@V?$_Vector_val@U?$_Simple_types@PAVProjectileBasic@@@std@@@2@$00@std@@QBEABV?$allocator@PAVProjectileBasic@@@2@XZ 0040a0c0 f i GameMain.obj
 0001:000090e0       ?_Get_second@?$_Compressed_pair@V?$allocator@PAVProjectileBasic@@@std@@V?$_Vector_val@U?$_Simple_types@PAVProjectileBasic@@@std@@@2@$00@std@@QAEAAV?$_Vector_val@U?$_Simple_types@PAVProjectileBasic@@@std@@@2@XZ 0040a0e0 f i GameMain.obj
 0001:00009100       ?_Get_second@?$_Compressed_pair@V?$allocator@PAVProjectileBasic@@@std@@V?$_Vector_val@U?$_Simple_types@PAVProjectileBasic@@@std@@@2@$00@std@@QBEABV?$_Vector_val@U?$_Simple_types@PAVProjectileBasic@@@std@@@2@XZ 0040a100 f i GameMain.obj
 0001:00009120       ?_Getal@?$_Vector_alloc@U?$_Vec_base_types@PAVProjectileBasic@@V?$allocator@PAVProjectileBasic@@@std@@@std@@@std@@QAEAAV?$allocator@PAVProjectileBasic@@@2@XZ 0040a120 f i GameMain.obj
 0001:00009140       ?_Getal@?$_Vector_alloc@U?$_Vec_base_types@PAVProjectileBasic@@V?$allocator@PAVProjectileBasic@@@std@@@std@@@std@@QBEABV?$allocator@PAVProjectileBasic@@@2@XZ 0040a140 f i GameMain.obj
 0001:00009160       ?_Has_unused_capacity@?$vector@PAVProjectileBasic@@V?$allocator@PAVProjectileBasic@@@std@@@std@@ABE_NXZ 0040a160 f i GameMain.obj
 0001:000091b0       ?_Myend@?$_Vector_alloc@U?$_Vec_base_types@PAVProjectileBasic@@V?$allocator@PAVProjectileBasic@@@std@@@std@@@std@@QAEAAPAPAVProjectileBasic@@XZ 0040a1b0 f i GameMain.obj
 0001:000091d0       ?_Myend@?$_Vector_alloc@U?$_Vec_base_types@PAVProjectileBasic@@V?$allocator@PAVProjectileBasic@@@std@@@std@@@std@@QBEABQAPAVProjectileBasic@@XZ 0040a1d0 f i GameMain.obj
 0001:000091f0       ?_Myfirst@?$_Vector_alloc@U?$_Vec_base_types@PAVProjectileBasic@@V?$allocator@PAVProjectileBasic@@@std@@@std@@@std@@QAEAAPAPAVProjectileBasic@@XZ 0040a1f0 f i GameMain.obj
 0001:00009210       ?_Myfirst@?$_Vector_alloc@U?$_Vec_base_types@PAVProjectileBasic@@V?$allocator@PAVProjectileBasic@@@std@@@std@@@std@@QBEABQAPAVProjectileBasic@@XZ 0040a210 f i GameMain.obj
 0001:00009230       ?_Mylast@?$_Vector_alloc@U?$_Vec_base_types@PAVProjectileBasic@@V?$allocator@PAVProjectileBasic@@@std@@@std@@@std@@QAEAAPAPAVProjectileBasic@@XZ 0040a230 f i GameMain.obj
 0001:00009250       ?_Mylast@?$_Vector_alloc@U?$_Vec_base_types@PAVProjectileBasic@@V?$allocator@PAVProjectileBasic@@@std@@@std@@@std@@QBEABQAPAVProjectileBasic@@XZ 0040a250 f i GameMain.obj
 0001:00009270       ?_Orphan_all@?$_Vector_alloc@U?$_Vec_base_types@PAVProjectileBasic@@V?$allocator@PAVProjectileBasic@@@std@@@std@@@std@@QAEXXZ 0040a270 f i GameMain.obj
 0001:00009290       ?_Orphan_all@_Container_base0@std@@QAEXXZ 0040a290 f i GameMain.obj
 0001:000092a0       ?_Orphan_range@?$vector@PAVProjectileBasic@@V?$allocator@PAVProjectileBasic@@@std@@@std@@ABEXPAPAVProjectileBasic@@0@Z 0040a2a0 f i GameMain.obj
 0001:000092b0       ?_Seek_to@?$_Vector_const_iterator@V?$_Vector_val@U?$_Simple_types@PAVProjectileBasic@@@std@@@std@@@std@@QAEXPBQAVProjectileBasic@@@Z 0040a2b0 f i GameMain.obj
 0001:000092e0       ?_Tidy@?$vector@PAVProjectileBasic@@V?$allocator@PAVProjectileBasic@@@std@@@std@@AAEXXZ 0040a2e0 f i GameMain.obj
 0001:00009390       ?_Umove@?$vector@PAVProjectileBasic@@V?$allocator@PAVProjectileBasic@@@std@@@std@@AAEPAPAVProjectileBasic@@PAPAV3@00@Z 0040a390 f i GameMain.obj
 0001:000093d0       ?_Umove_if_noexcept1@?$vector@PAVProjectileBasic@@V?$allocator@PAVProjectileBasic@@@std@@@std@@AAEXPAPAVProjectileBasic@@00U?$integral_constant@_N$00@2@@Z 0040a3d0 f i GameMain.obj
 0001:00009410       ?_Umove_if_noexcept@?$vector@PAVProjectileBasic@@V?$allocator@PAVProjectileBasic@@@std@@@std@@AAEXPAPAVProjectileBasic@@00@Z 0040a410 f i GameMain.obj
 0001:00009450       ?_Unwrapped@?$_Vector_iterator@V?$_Vector_val@U?$_Simple_types@PAVProjectileBasic@@@std@@@std@@@std@@QBEPAPAVProjectileBasic@@XZ 0040a450 f i GameMain.obj
 0001:00009470       ?_Xlength@?$vector@PAVProjectileBasic@@V?$allocator@PAVProjectileBasic@@@std@@@std@@CAXXZ 0040a470 f i GameMain.obj
 0001:00009490       ?allocate@?$allocator@PAVProjectileBasic@@@std@@QAEPAPAVProjectileBasic@@I@Z 0040a490 f i GameMain.obj
 0001:000094c0       ?begin@?$vector@PAVProjectileBasic@@V?$allocator@PAVProjectileBasic@@@std@@@std@@QAE?AV?$_Vector_iterator@V?$_Vector_val@U?$_Simple_types@PAVProjectileBasic@@@std@@@std@@@2@XZ 0040a4c0 f i GameMain.obj
 0001:00009540       ?capacity@?$vector@PAVProjectileBasic@@V?$allocator@PAVProjectileBasic@@@std@@@std@@QBEIXZ 0040a540 f i GameMain.obj
 0001:00009580       ?changeState@Game@@QAEXD@Z 0040a580 f i GameMain.obj
 0001:000095b0       ?changeState@Game@@QAEXDHH@Z 0040a5b0 f i GameMain.obj
 0001:000095e0       ?deallocate@?$allocator@PAVProjectileBasic@@@std@@QAEXQAPAVProjectileBasic@@I@Z 0040a5e0 f i GameMain.obj
 0001:00009610       ?empty@?$vector@PAVProjectileBasic@@V?$allocator@PAVProjectileBasic@@@std@@@std@@QBE_NXZ 0040a610 f i GameMain.obj
 0001:00009660       ?end@?$vector@PAVProjectileBasic@@V?$allocator@PAVProjectileBasic@@@std@@@std@@QAE?AV?$_Vector_iterator@V?$_Vector_val@U?$_Simple_types@PAVProjectileBasic@@@std@@@std@@@2@XZ 0040a660 f i GameMain.obj
 0001:000096e0       ?erase@?$vector@PAVProjectileBasic@@V?$allocator@PAVProjectileBasic@@@std@@@std@@QAE?AV?$_Vector_iterator@V?$_Vector_val@U?$_Simple_types@PAVProjectileBasic@@@std@@@std@@@2@V?$_Vector_const_iterator@V?$_Vector_val@U?$_Simple_types@PAVProjectileBasic@@@std@@@std@@@2@@Z 0040a6e0 f i GameMain.obj
 0001:000097a0       ?getDistanceTravelled@Enemy@@QAEHXZ 0040a7a0 f i GameMain.obj
 0001:000097c0       ?getLvl@Enemy@@QAEHXZ      0040a7c0 f i GameMain.obj
 0001:000097e0       ?getRadius@Enemy@@QAEHXZ   0040a7e0 f i GameMain.obj
 0001:00009800       ?getSpawnedTick@Enemy@@QAEHXZ 0040a800 f i GameMain.obj
 0001:00009820       ?getWaveNumber@WaveManager@@QAEHXZ 0040a820 f i GameMain.obj
 0001:00009840       ?getXPosition@Enemy@@QAEHXZ 0040a840 f i GameMain.obj
 0001:00009860       ?getXPosition@ProjectileBasic@@QAEHXZ 0040a860 f i GameMain.obj
 0001:00009880       ?getXPosition@TurretBasic@@QAEHXZ 0040a880 f i GameMain.obj
 0001:000098a0       ?getYPosition@Enemy@@QAEHXZ 0040a8a0 f i GameMain.obj
 0001:000098c0       ?getYPosition@ProjectileBasic@@QAEHXZ 0040a8c0 f i GameMain.obj
 0001:000098e0       ?getYPosition@TurretBasic@@QAEHXZ 0040a8e0 f i GameMain.obj
 0001:00009900       ?initialise@GameMain@@UAEXXZ 0040a900 f i GameMain.obj
 0001:0000b720       ?isSpawned@Enemy@@QAE_NXZ  0040c720 f i GameMain.obj
 0001:0000b740       ?max@?$numeric_limits@H@std@@SAHXZ 0040c740 f i GameMain.obj
 0001:0000b750       ?max_size@?$_Default_allocator_traits@V?$allocator@PAVProjectileBasic@@@std@@@std@@SAIABV?$allocator@PAVProjectileBasic@@@2@@Z 0040c750 f i GameMain.obj
 0001:0000b760       ?max_size@?$vector@PAVProjectileBasic@@V?$allocator@PAVProjectileBasic@@@std@@@std@@QBEIXZ 0040c760 f i GameMain.obj
 0001:0000b7b0       ?push_back@?$vector@PAVProjectileBasic@@V?$allocator@PAVProjectileBasic@@@std@@@std@@QAEXABQAVProjectileBasic@@@Z 0040c7b0 f i GameMain.obj
 0001:0000b7d0       ?setXPosition@TurretBasic@@QAEXH@Z 0040c7d0 f i GameMain.obj
 0001:0000b800       ?setXPosition@TurretSniper@@QAEXH@Z 0040c800 f i GameMain.obj
 0001:0000b830       ?setYPosition@TurretBasic@@QAEXH@Z 0040c830 f i GameMain.obj
 0001:0000b860       ?setYPosition@TurretSniper@@QAEXH@Z 0040c860 f i GameMain.obj
 0001:0000b890       ?size@?$vector@PAVProjectileBasic@@V?$allocator@PAVProjectileBasic@@@std@@@std@@QBEIXZ 0040c890 f i GameMain.obj
 0001:0000b8d0       ?update@GameMain@@UAEXXZ   0040c8d0 f i GameMain.obj
 0001:0000ba00       ___local_stdio_printf_options 0040ca00 f i GameMain.obj
 0001:0000ba10       __vfprintf_l               0040ca10 f i GameMain.obj
 0001:0000ba50       __vsnprintf_l              0040ca50 f i GameMain.obj
 0001:0000bac0       __vsprintf_l               0040cac0 f i GameMain.obj
 0001:0000baf0       _printf                    0040caf0 f i GameMain.obj
 0001:0000bb40       _sprintf                   0040cb40 f i GameMain.obj
 0001:0000bb80       ??1GameOverState@@QAE@XZ   0040cb80 f   GameOverState.obj
 0001:0000bbc0       ?initialise@GameOverState@@UAEXXZ 0040cbc0 f   GameOverState.obj
 0001:0000bbf0       ?update@GameOverState@@UAEXXZ 0040cbf0 f   GameOverState.obj
 0001:0000bf70       ?MouseInput@GameOverState@@UAEXHHH@Z 0040cf70 f   GameOverState.obj
 0001:0000c260       ?KeyBoardInputDown@GameOverState@@UAEXH@Z 0040d260 f   GameOverState.obj
 0001:0000c530       ??$?0$$V@?$_Compressed_pair@V?$allocator@D@std@@V?$_String_val@U?$_Simple_types@D@std@@@2@$00@std@@QAE@U_Zero_then_variadic_args_t@1@@Z 0040d530 f i GameOverState.obj
 0001:0000c560       ??$?0$$V@?$_Compressed_pair@V?$allocator@UhighscorePair@GameState@@@std@@V?$_Vector_val@U?$_Simple_types@UhighscorePair@GameState@@@std@@@2@$00@std@@QAE@U_Zero_then_variadic_args_t@1@@Z 0040d560 f i GameOverState.obj
 0001:0000c590       ??$?0AAPAUhighscorePair@GameState@@AAPAU01@$0A@@?$pair@PAUhighscorePair@GameState@@PAU12@@std@@QAE@AAPAUhighscorePair@GameState@@0@Z 0040d590 f i GameOverState.obj
 0001:0000c5e0       ??$?0AAPAV_Facet_base@std@@@?$_Compressed_pair@U?$default_delete@V_Facet_base@std@@@std@@PAV_Facet_base@2@$00@std@@QAE@U_Zero_then_variadic_args_t@1@AAPAV_Facet_base@1@@Z 0040d5e0 f i GameOverState.obj
 0001:0000c610       ??$?0ABV?$allocator@D@std@@$$V@?$_Compressed_pair@V?$allocator@D@std@@V?$_String_val@U?$_Simple_types@D@std@@@2@$00@std@@QAE@U_One_then_variadic_args_t@1@ABV?$allocator@D@1@@Z 0040d610 f i GameOverState.obj
 0001:0000c640       ??$?0ABV?$allocator@D@std@@X@?$_String_alloc@U?$_String_base_types@DV?$allocator@D@std@@@std@@@std@@QAE@ABV?$allocator@D@1@@Z 0040d640 f i GameOverState.obj
 0001:0000c680       ??$?0PADX@?$basic_string@DU?$char_traits@D@std@@V?$allocator@D@2@@std@@QAE@PAD0ABV?$allocator@D@1@@Z 0040d680 f i GameOverState.obj
 0001:0000c740       ??$?0PAV_Facet_base@std@@@?$_Unique_ptr_base@V_Facet_base@std@@U?$default_delete@V_Facet_base@std@@@2@@std@@QAE@PAV_Facet_base@1@@Z 0040d740 f i GameOverState.obj
 0001:0000c770       ??$?0U?$default_delete@V_Facet_base@std@@@std@@$0A@@?$unique_ptr@V_Facet_base@std@@U?$default_delete@V_Facet_base@std@@@2@@std@@QAE@PAV_Facet_base@1@@Z 0040d770 f i GameOverState.obj
 0001:0000c7d0       ??$?0U?$integral_constant@_N$00@std@@@_Unused_parameter@std@@QAE@$$QAU?$integral_constant@_N$00@1@@Z 0040d7d0 f i GameOverState.obj
 0001:0000c7f0       ??$?0V?$allocator@UhighscorePair@GameState@@@std@@$$V@?$_Compressed_pair@V?$allocator@UhighscorePair@GameState@@@std@@V?$_Vector_val@U?$_Simple_types@UhighscorePair@GameState@@@std@@@2@$00@std@@QAE@U_One_then_variadic_args_t@1@$$QAV?$allocator@UhighscorePair@GameState@@@1@@Z 0040d7f0 f i GameOverState.obj
 0001:0000c820       ??$?0V?$allocator@UhighscorePair@GameState@@@std@@X@?$_Vector_alloc@U?$_Vec_base_types@UhighscorePair@GameState@@V?$allocator@UhighscorePair@GameState@@@std@@@std@@@std@@QAE@$$QAV?$allocator@UhighscorePair@GameState@@@1@@Z 0040d820 f i GameOverState.obj
 0001:0000c860       ??$?5DU?$char_traits@D@std@@@std@@YAAAV?$basic_istream@DU?$char_traits@D@std@@@0@AAV10@PAD@Z 0040d860 f i GameOverState.obj
 0001:0000cbb0       ??$?6DU?$char_traits@D@std@@V?$allocator@D@1@@std@@YAAAV?$basic_ostream@DU?$char_traits@D@std@@@0@AAV10@ABV?$basic_string@DU?$char_traits@D@std@@V?$allocator@D@2@@0@@Z 0040dbb0 f i GameOverState.obj
 0001:0000cbe0       ??$_Adl_verify_range1@PADPAD@std@@YAXABQAD0U?$integral_constant@_N$0A@@0@@Z 0040dbe0 f i GameOverState.obj
 0001:0000cbf0       ??$_Adl_verify_range1@V?$_Vector_iterator@V?$_Vector_val@U?$_Simple_types@UhighscorePair@GameState@@@std@@@std@@@std@@V12@@std@@YAXABV?$_Vector_iterator@V?$_Vector_val@U?$_Simple_types@UhighscorePair@GameState@@@std@@@std@@@0@0U?$integral_constant@_N$0A@@0@@Z 0040dbf0 f i GameOverState.obj
 0001:0000cc00       ??$_Adl_verify_range@PADPAD@std@@YAXABQAD0@Z 0040dc00 f i GameOverState.obj
 0001:0000cc30       ??$_Adl_verify_range@V?$_Vector_iterator@V?$_Vector_val@U?$_Simple_types@UhighscorePair@GameState@@@std@@@std@@@std@@V12@@std@@YAXABV?$_Vector_iterator@V?$_Vector_val@U?$_Simple_types@UhighscorePair@GameState@@@std@@@std@@@0@0@Z 0040dc30 f i GameOverState.obj
 0001:0000cc60       ??$_Convert_size@I@std@@YAII@Z 0040dc60 f i GameOverState.obj
 0001:0000cc70       ??$_Copy_backward_memmove@PAUhighscorePair@GameState@@PAU12@@std@@YAPAUhighscorePair@GameState@@PAU12@00@Z 0040dc70 f i GameOverState.obj
 0001:0000ccc0       ??$_Destroy_range1@V?$allocator@UhighscorePair@GameState@@@std@@@std@@YAXPAUhighscorePair@GameState@@0AAV?$allocator@UhighscorePair@GameState@@@0@U?$integral_constant@_N$00@0@@Z 0040dcc0 f i GameOverState.obj
 0001:0000ccd0       ??$_Destroy_range@V?$allocator@UhighscorePair@GameState@@@std@@@std@@YAXPAUhighscorePair@GameState@@0AAV?$allocator@UhighscorePair@GameState@@@0@@Z 0040dcd0 f i GameOverState.obj
 0001:0000cd00       ??$_Emplace_back@UhighscorePair@GameState@@@?$_Uninitialized_backout_al@PAUhighscorePair@GameState@@V?$allocator@UhighscorePair@GameState@@@std@@@std@@QAEX$$QAUhighscorePair@GameState@@@Z 0040dd00 f i GameOverState.obj
 0001:0000cd60       ??$_Emplace_back_with_unused_capacity@ABUhighscorePair@GameState@@@?$vector@UhighscorePair@GameState@@V?$allocator@UhighscorePair@GameState@@@std@@@std@@AAE@ABUhighscorePair@GameState@@@Z 0040dd60 f i GameOverState.obj
 0001:0000ce10       ??$_Emplace_reallocate@ABUhighscorePair@GameState@@@?$vector@UhighscorePair@GameState@@V?$allocator@UhighscorePair@GameState@@@std@@@std@@QAEPAUhighscorePair@GameState@@QAU23@ABU23@@Z 0040de10 f i GameOverState.obj
 0001:0000d070       ??$_Fgetc@D@std@@YA_NAADPAU_iobuf@@@Z 0040e070 f i GameOverState.obj
 0001:0000d0b0       ??$_Fputc@D@std@@YA_NDPAU_iobuf@@@Z 0040e0b0 f i GameOverState.obj
 0001:0000d0f0       ??$_Get_size_of_n@$00@std@@YAII@Z 0040e0f0 f i GameOverState.obj
 0001:0000d100       ??$_Get_size_of_n@$0BI@@std@@YAII@Z 0040e100 f i GameOverState.obj
 0001:0000d140       ??$_Get_unwrapped@D@std@@YAPADQAD@Z 0040e140 f i GameOverState.obj
 0001:0000d150       ??$_Get_unwrapped@UhighscorePair@GameState@@@std@@YAPAUhighscorePair@GameState@@QAU12@@Z 0040e150 f i GameOverState.obj
 0001:0000d160       ??$_Get_unwrapped@V?$_Vector_iterator@V?$_Vector_val@U?$_Simple_types@UhighscorePair@GameState@@@std@@@std@@@std@@$0A@@std@@YA@ABV?$_Vector_iterator@V?$_Vector_val@U?$_Simple_types@UhighscorePair@GameState@@@std@@@std@@@0@@Z 0040e160 f i GameOverState.obj
 0001:0000d170       ??$_Get_unwrapped_n@UhighscorePair@GameState@@H$0A@@std@@YAPAUhighscorePair@GameState@@QAU12@H@Z 0040e170 f i GameOverState.obj
 0001:0000d180       ??$_Guess_median_unchecked@PAUhighscorePair@GameState@@UcompareScores@GameOverState@@@std@@YAXPAUhighscorePair@GameState@@00UcompareScores@GameOverState@@@Z 0040e180 f i GameOverState.obj
 0001:0000d2a0       ??$_Idl_distance1@PAUhighscorePair@GameState@@PAU12@@std@@YAHABQAUhighscorePair@GameState@@0Urandom_access_iterator_tag@0@@Z 0040e2a0 f i GameOverState.obj
 0001:0000d2c0       ??$_Idl_distance@PAUhighscorePair@GameState@@PAU12@@std@@YA@ABQAUhighscorePair@GameState@@0@Z 0040e2c0 f i GameOverState.obj
 0001:0000d2f0       ??$_Insert_string@DU?$char_traits@D@std@@I@std@@YAAAV?$basic_ostream@DU?$char_traits@D@std@@@0@AAV10@QBDI@Z 0040e2f0 f i GameOverState.obj
 0001:0000d680       ??$_Insertion_sort_unchecked@PAUhighscorePair@GameState@@UcompareScores@GameOverState@@@std@@YAPAUhighscorePair@GameState@@PAU12@QAU12@UcompareScores@GameOverState@@@Z 0040e680 f i GameOverState.obj
 0001:0000d860       ??$_Integral_to_string@DH@std@@YA?AV?$basic_string@DU?$char_traits@D@std@@V?$allocator@D@2@@0@H@Z 0040e860 f i GameOverState.obj
 0001:0000d930       ??$_Make_heap_unchecked@PAUhighscorePair@GameState@@UcompareScores@GameOverState@@@std@@YAXPAUhighscorePair@GameState@@0UcompareScores@GameOverState@@@Z 0040e930 f i GameOverState.obj
 0001:0000da00       ??$_Max_value@I@std@@YAABIABI0@Z 0040ea00 f i GameOverState.obj
 0001:0000da40       ??$_Med3_unchecked@PAUhighscorePair@GameState@@UcompareScores@GameOverState@@@std@@YAXPAUhighscorePair@GameState@@00UcompareScores@GameOverState@@@Z 0040ea40 f i GameOverState.obj
 0001:0000dae0       ??$_Move_backward_unchecked1@PAUhighscorePair@GameState@@PAU12@@std@@YAPAUhighscorePair@GameState@@PAU12@00U_Trivially_copyable_ptr_iterator_tag@0@@Z 0040eae0 f i GameOverState.obj
 0001:0000db00       ??$_Move_backward_unchecked@PAUhighscorePair@GameState@@PAU12@@std@@YAPAUhighscorePair@GameState@@PAU12@00@Z 0040eb00 f i GameOverState.obj
 0001:0000db50       ??$_Partition_by_median_guess_unchecked@PAUhighscorePair@GameState@@UcompareScores@GameOverState@@@std@@YA?AU?$pair@PAUhighscorePair@GameState@@PAU12@@0@PAUhighscorePair@GameState@@0UcompareScores@GameOverState@@@Z 0040eb50 f i GameOverState.obj
 0001:0000dec0       ??$_Pass_fn@UcompareScores@GameOverState@@$0A@@std@@YA?AUcompareScores@GameOverState@@U12@@Z 0040eec0 f i GameOverState.obj
 0001:0000ded0       ??$_Pocma@V?$allocator@UhighscorePair@GameState@@@std@@@std@@YAXAAV?$allocator@UhighscorePair@GameState@@@0@0@Z 0040eed0 f i GameOverState.obj
 0001:0000df00       ??$_Pocma@V?$allocator@UhighscorePair@GameState@@@std@@@std@@YAXAAV?$allocator@UhighscorePair@GameState@@@0@0U?$integral_constant@_N$00@0@@Z 0040ef00 f i GameOverState.obj
 0001:0000df20       ??$_Pop_heap_hole_by_index@PAUhighscorePair@GameState@@U12@UcompareScores@GameOverState@@@std@@YAXPAUhighscorePair@GameState@@HH$$QAU12@UcompareScores@GameOverState@@@Z 0040ef20 f i GameOverState.obj
 0001:0000e0a0       ??$_Pop_heap_hole_unchecked@PAUhighscorePair@GameState@@U12@UcompareScores@GameOverState@@@std@@YAXPAUhighscorePair@GameState@@00$$QAU12@UcompareScores@GameOverState@@@Z 0040f0a0 f i GameOverState.obj
 0001:0000e120       ??$_Pop_heap_unchecked@PAUhighscorePair@GameState@@UcompareScores@GameOverState@@@std@@YAXPAUhighscorePair@GameState@@0UcompareScores@GameOverState@@@Z 0040f120 f i GameOverState.obj
 0001:0000e1e0       ??$_Ptr_move_cat@UhighscorePair@GameState@@U12@@std@@YA?AU_Trivially_copyable_ptr_iterator_tag@0@ABQAUhighscorePair@GameState@@0@Z 0040f1e0 f i GameOverState.obj
 0001:0000e1f0       ??$_Push_heap_by_index@PAUhighscorePair@GameState@@U12@UcompareScores@GameOverState@@@std@@YAXPAUhighscorePair@GameState@@HH$$QAU12@UcompareScores@GameOverState@@@Z 0040f1f0 f i GameOverState.obj
 0001:0000e2e0       ??$_Reallocate_for@V<lambda_9366063389c5f42a00a5088cf24e69de>@@PBD@?$basic_string@DU?$char_traits@D@std@@V?$allocator@D@2@@std@@QAEAAV01@IV<lambda_9366063389c5f42a00a5088cf24e69de>@@PBD@Z 0040f2e0 f i GameOverState.obj
 0001:0000e400       ??$_Reallocate_grow_by@V<lambda_15711c68e099a15a58f4d77303cb286d>@@D@?$basic_string@DU?$char_traits@D@std@@V?$allocator@D@2@@std@@QAEAAV01@IV<lambda_15711c68e099a15a58f4d77303cb286d>@@D@Z 0040f400 f i GameOverState.obj
 0001:0000e570       ??$_Reallocate_grow_by@V<lambda_ab246b20b9526e2ef7792587e4298a77>@@PBDI@?$basic_string@DU?$char_traits@D@std@@V?$allocator@D@2@@std@@QAEAAV01@IV<lambda_ab246b20b9526e2ef7792587e4298a77>@@PBDI@Z 0040f570 f i GameOverState.obj
 0001:0000e6f0       ??$_Refancy@PAD$0A@@std@@YAPADPAD@Z 0040f6f0 f i GameOverState.obj
 0001:0000e700       ??$_Seek_wrapped@UhighscorePair@GameState@@@std@@YAXAAPAUhighscorePair@GameState@@QAU12@@Z 0040f700 f i GameOverState.obj
 0001:0000e710       ??$_Sort_heap_unchecked@PAUhighscorePair@GameState@@UcompareScores@GameOverState@@@std@@YAXPAUhighscorePair@GameState@@0UcompareScores@GameOverState@@@Z 0040f710 f i GameOverState.obj
 0001:0000e760       ??$_Sort_unchecked@PAUhighscorePair@GameState@@UcompareScores@GameOverState@@@std@@YAXPAUhighscorePair@GameState@@0HUcompareScores@GameOverState@@@Z 0040f760 f i GameOverState.obj
 0001:0000e8c0       ??$_UIntegral_to_buff@DI@std@@YAPADPADI@Z 0040f8c0 f i GameOverState.obj
 0001:0000e9b0       ??$_Unfancy@D@std@@YAPADPAD@Z 0040f9b0 f i GameOverState.obj
 0001:0000e9c0       ??$_Unfancy@UhighscorePair@GameState@@@std@@YAPAUhighscorePair@GameState@@PAU12@@Z 0040f9c0 f i GameOverState.obj
 0001:0000e9d0       ??$_Ungetc@D@std@@YA_NABDPAU_iobuf@@@Z 0040f9d0 f i GameOverState.obj
 0001:0000ea20       ??$_Uninitialized_move@PAUhighscorePair@GameState@@PAU12@V?$allocator@UhighscorePair@GameState@@@std@@@std@@YAPAUhighscorePair@GameState@@QAU12@0PAU12@AAV?$allocator@UhighscorePair@GameState@@@0@@Z 0040fa20 f i GameOverState.obj
 0001:0000eae0       ??$_Uninitialized_move_al_unchecked@PAUhighscorePair@GameState@@PAU12@V?$allocator@UhighscorePair@GameState@@@std@@@std@@YAPAUhighscorePair@GameState@@PAU12@QAU12@1AAV?$allocator@UhighscorePair@GameState@@@0@U_General_ptr_iterator_tag@0@U_Unused_parameter@0@@Z 0040fae0 f i GameOverState.obj
 0001:0000eba0       ??$addressof@$$CBV?$codecvt@DDU_Mbstatet@@@std@@@std@@YAPBV?$codecvt@DDU_Mbstatet@@@0@ABV10@@Z 0040fba0 f i GameOverState.obj
 0001:0000ebb0       ??$addressof@PAD@std@@YAPAPADAAPAD@Z 0040fbb0 f i GameOverState.obj
 0001:0000ebc0       ??$addressof@V?$_String_val@U?$_Simple_types@D@std@@@std@@@std@@YAPAV?$_String_val@U?$_Simple_types@D@std@@@0@AAV10@@Z 0040fbc0 f i GameOverState.obj
 0001:0000ebd0       ??$addressof@V?$_Vector_val@U?$_Simple_types@UhighscorePair@GameState@@@std@@@std@@@std@@YAPAV?$_Vector_val@U?$_Simple_types@UhighscorePair@GameState@@@std@@@0@AAV10@@Z 0040fbd0 f i GameOverState.obj
 0001:0000ebe0       ??$addressof@V?$vector@UhighscorePair@GameState@@V?$allocator@UhighscorePair@GameState@@@std@@@std@@@std@@YAPAV?$vector@UhighscorePair@GameState@@V?$allocator@UhighscorePair@GameState@@@std@@@0@AAV10@@Z 0040fbe0 f i GameOverState.obj
 0001:0000ebf0       ??$construct@PADABQAD@?$_Default_allocator_traits@V?$allocator@D@std@@@std@@SAXAAV?$allocator@D@1@QAPADABQAD@Z 0040fbf0 f i GameOverState.obj
 0001:0000ec30       ??$construct@UhighscorePair@GameState@@ABU12@@?$_Default_allocator_traits@V?$allocator@UhighscorePair@GameState@@@std@@@std@@SAXAAV?$allocator@UhighscorePair@GameState@@@1@QAUhighscorePair@GameState@@ABU34@@Z 0040fc30 f i GameOverState.obj
 0001:0000ec90       ??$construct@UhighscorePair@GameState@@U12@@?$_Default_allocator_traits@V?$allocator@UhighscorePair@GameState@@@std@@@std@@SAXAAV?$allocator@UhighscorePair@GameState@@@1@QAUhighscorePair@GameState@@$$QAU34@@Z 0040fc90 f i GameOverState.obj
 0001:0000ecf0       ??$destroy@PAD@?$_Default_allocator_traits@V?$allocator@D@std@@@std@@SAXAAV?$allocator@D@1@QAPAD@Z 0040fcf0 f i GameOverState.obj
 0001:0000ed00       ??$emplace_back@ABUhighscorePair@GameState@@@?$vector@UhighscorePair@GameState@@V?$allocator@UhighscorePair@GameState@@@std@@@std@@QAE@ABUhighscorePair@GameState@@@Z 0040fd00 f i GameOverState.obj
 0001:0000ed70       ??$end@D$0BF@@std@@YAPADAAY0BF@D@Z 0040fd70 f i GameOverState.obj
 0001:0000ed80       ??$forward@AAPAUhighscorePair@GameState@@@std@@YAAAPAUhighscorePair@GameState@@AAPAU12@@Z 0040fd80 f i GameOverState.obj
 0001:0000ed90       ??$forward@AAPAV_Facet_base@std@@@std@@YAAAPAV_Facet_base@0@AAPAV10@@Z 0040fd90 f i GameOverState.obj
 0001:0000eda0       ??$forward@ABQAD@std@@YAABQADABQAD@Z 0040fda0 f i GameOverState.obj
 0001:0000edb0       ??$forward@ABUhighscorePair@GameState@@@std@@YAABUhighscorePair@GameState@@ABU12@@Z 0040fdb0 f i GameOverState.obj
 0001:0000edc0       ??$forward@ABV?$allocator@D@std@@@std@@YAABV?$allocator@D@0@ABV10@@Z 0040fdc0 f i GameOverState.obj
 0001:0000edd0       ??$forward@UhighscorePair@GameState@@@std@@YA$$QAUhighscorePair@GameState@@AAU12@@Z 0040fdd0 f i GameOverState.obj
 0001:0000ede0       ??$forward@V?$allocator@UhighscorePair@GameState@@@std@@@std@@YA$$QAV?$allocator@UhighscorePair@GameState@@@0@AAV10@@Z 0040fde0 f i GameOverState.obj
 0001:0000edf0       ??$iter_swap@PAUhighscorePair@GameState@@PAU12@@std@@YAXPAUhighscorePair@GameState@@0@Z 0040fdf0 f i GameOverState.obj
 0001:0000ee10       ??$move@AAUhighscorePair@GameState@@@std@@YA$$QAUhighscorePair@GameState@@AAU12@@Z 0040fe10 f i GameOverState.obj
 0001:0000ee20       ??$move@AAV?$allocator@UhighscorePair@GameState@@@std@@@std@@YA$$QAV?$allocator@UhighscorePair@GameState@@@0@AAV10@@Z 0040fe20 f i GameOverState.obj
 0001:0000ee30       ??$move@AAV?$vector@UhighscorePair@GameState@@V?$allocator@UhighscorePair@GameState@@@std@@@std@@@std@@YA$$QAV?$vector@UhighscorePair@GameState@@V?$allocator@UhighscorePair@GameState@@@std@@@0@AAV10@@Z 0040fe30 f i GameOverState.obj
 0001:0000ee40       ??$sort@V?$_Vector_iterator@V?$_Vector_val@U?$_Simple_types@UhighscorePair@GameState@@@std@@@std@@@std@@UcompareScores@GameOverState@@@std@@YAXV?$_Vector_iterator@V?$_Vector_val@U?$_Simple_types@UhighscorePair@GameState@@@std@@@std@@@0@0UcompareScores@GameOverState@@@Z 0040fe40 f i GameOverState.obj
 0001:0000eed0       ??$swap@UhighscorePair@GameState@@X@std@@YAXAAUhighscorePair@GameState@@0@Z 0040fed0 f i GameOverState.obj
 0001:0000efb0       ??$use_facet@V?$codecvt@DDU_Mbstatet@@@std@@@std@@YAABV?$codecvt@DDU_Mbstatet@@@0@ABVlocale@0@@Z 0040ffb0 f i GameOverState.obj
 0001:0000f120       ??$use_facet@V?$ctype@D@std@@@std@@YAABV?$ctype@D@0@ABVlocale@0@@Z 00410120 f i GameOverState.obj
 0001:0000f290       ??0?$_String_alloc@U?$_String_base_types@DV?$allocator@D@std@@@std@@@std@@QAE@XZ 00410290 f i GameOverState.obj
 0001:0000f2c0       ??0?$_String_const_iterator@V?$_String_val@U?$_Simple_types@D@std@@@std@@@std@@QAE@PBDPBU_Container_base0@1@@Z 004102c0 f i GameOverState.obj
 0001:0000f2f0       ??0?$_String_iterator@V?$_String_val@U?$_Simple_types@D@std@@@std@@@std@@QAE@PADPBU_Container_base0@1@@Z 004102f0 f i GameOverState.obj
 0001:0000f320       ??0?$_String_val@U?$_Simple_types@D@std@@@std@@QAE@XZ 00410320 f i GameOverState.obj
 0001:0000f360       ??0?$_Uninitialized_backout_al@PAUhighscorePair@GameState@@V?$allocator@UhighscorePair@GameState@@@std@@@std@@QAE@PAUhighscorePair@GameState@@AAV?$allocator@UhighscorePair@GameState@@@1@@Z 00410360 f i GameOverState.obj
 0001:0000f3a0       ??0?$_Vector_alloc@U?$_Vec_base_types@UhighscorePair@GameState@@V?$allocator@UhighscorePair@GameState@@@std@@@std@@@std@@QAE@XZ 004103a0 f i GameOverState.obj
 0001:0000f3d0       ??0?$_Vector_const_iterator@V?$_Vector_val@U?$_Simple_types@UhighscorePair@GameState@@@std@@@std@@@std@@QAE@PAUhighscorePair@GameState@@PBU_Container_base0@1@@Z 004103d0 f i GameOverState.obj
 0001:0000f400       ??0?$_Vector_iterator@V?$_Vector_val@U?$_Simple_types@UhighscorePair@GameState@@@std@@@std@@@std@@QAE@PAUhighscorePair@GameState@@PBU_Container_base0@1@@Z 00410400 f i GameOverState.obj
 0001:0000f430       ??0?$_Vector_val@U?$_Simple_types@UhighscorePair@GameState@@@std@@@std@@QAE@XZ 00410430 f i GameOverState.obj
 0001:0000f470       ??0?$allocator@D@std@@QAE@XZ 00410470 f i GameOverState.obj
 0001:0000f490       ??0?$allocator@UhighscorePair@GameState@@@std@@QAE@XZ 00410490 f i GameOverState.obj
 0001:0000f4b0       ??0?$basic_filebuf@DU?$char_traits@D@std@@@std@@QAE@PAU_iobuf@@@Z 004104b0 f i GameOverState.obj
 0001:0000f540       ??0?$basic_ifstream@DU?$char_traits@D@std@@@std@@QAE@PBDHH@Z 00410540 f i GameOverState.obj
 0001:0000f690       ??0?$basic_ofstream@DU?$char_traits@D@std@@@std@@QAE@XZ 00410690 f i GameOverState.obj
 0001:0000f790       ??0?$basic_string@DU?$char_traits@D@std@@V?$allocator@D@2@@std@@QAE@XZ 00410790 f i GameOverState.obj
 0001:0000f7f0       ??0?$fpos@U_Mbstatet@@@std@@QAE@U_Mbstatet@@_J@Z 004107f0 f i GameOverState.obj
 0001:0000f840       ??0?$fpos@U_Mbstatet@@@std@@QAE@_J@Z 00410840 f i GameOverState.obj
 0001:0000f890       ??0?$vector@UhighscorePair@GameState@@V?$allocator@UhighscorePair@GameState@@@std@@@std@@QAE@$$QAV01@@Z 00410890 f i GameOverState.obj
 0001:0000f930       ??0?$vector@UhighscorePair@GameState@@V?$allocator@UhighscorePair@GameState@@@std@@@std@@QAE@XZ 00410930 f i GameOverState.obj
 0001:0000f980       ??0_Bxty@?$_String_val@U?$_Simple_types@D@std@@@std@@QAE@XZ 00410980 f i GameOverState.obj
 0001:0000f9a0       ??0_Sentry_base@?$basic_istream@DU?$char_traits@D@std@@@std@@QAE@AAV12@@Z 004109a0 f i GameOverState.obj
 0001:0000fa20       ??0_Sentry_base@?$basic_ostream@DU?$char_traits@D@std@@@std@@QAE@AAV12@@Z 00410a20 f i GameOverState.obj
 0001:0000faa0       ??0bad_cast@std@@QAE@ABV01@@Z 00410aa0 f i GameOverState.obj
 0001:0000fad0       ??0bad_cast@std@@QAE@XZ    00410ad0 f i GameOverState.obj
 0001:0000fb00       ??0exception@std@@QAE@ABV01@@Z 00410b00 f i GameOverState.obj
 0001:0000fb50       ??0exception@std@@QAE@QBDH@Z 00410b50 f i GameOverState.obj
 0001:0000fb90       ??0highscorePair@GameState@@QAE@XZ 00410b90 f i GameOverState.obj
 0001:0000fbe0       ??0sentry@?$basic_istream@DU?$char_traits@D@std@@@std@@QAE@AAV12@_N@Z 00410be0 f i GameOverState.obj
 0001:0000fc70       ??0sentry@?$basic_ostream@DU?$char_traits@D@std@@@std@@QAE@AAV12@@Z 00410c70 f i GameOverState.obj
 0001:0000fd70       ??1?$_Compressed_pair@V?$allocator@D@std@@V?$_String_val@U?$_Simple_types@D@std@@@2@$00@std@@QAE@XZ 00410d70 f i GameOverState.obj
 0001:0000fd90       ??1?$_String_alloc@U?$_String_base_types@DV?$allocator@D@std@@@std@@@std@@QAE@XZ 00410d90 f i GameOverState.obj
 0001:0000fdb0       ??1?$_String_val@U?$_Simple_types@D@std@@@std@@QAE@XZ 00410db0 f i GameOverState.obj
 0001:0000fdd0       ??1?$_Uninitialized_backout_al@PAUhighscorePair@GameState@@V?$allocator@UhighscorePair@GameState@@@std@@@std@@QAE@XZ 00410dd0 f i GameOverState.obj
 0001:0000fe40       ??1?$basic_filebuf@DU?$char_traits@D@std@@@std@@UAE@XZ 00410e40 f i GameOverState.obj
 0001:0000fed0       ??1?$basic_ifstream@DU?$char_traits@D@std@@@std@@UAE@XZ 00410ed0 f i GameOverState.obj
 0001:0000ff40       ??1?$basic_ofstream@DU?$char_traits@D@std@@@std@@UAE@XZ 00410f40 f i GameOverState.obj
 0001:0000ffb0       ??1?$basic_string@DU?$char_traits@D@std@@V?$allocator@D@2@@std@@QAE@XZ 00410fb0 f i GameOverState.obj
 0001:00010010       ??1?$unique_ptr@V_Facet_base@std@@U?$default_delete@V_Facet_base@std@@@2@@std@@QAE@XZ 00411010 f i GameOverState.obj
 0001:00010050       ??1?$vector@UhighscorePair@GameState@@V?$allocator@UhighscorePair@GameState@@@std@@@std@@QAE@XZ 00411050 f i GameOverState.obj
 0001:000100a0       ??1_Bxty@?$_String_val@U?$_Simple_types@D@std@@@std@@QAE@XZ 004110a0 f i GameOverState.obj
 0001:000100b0       ??1_Sentry_base@?$basic_istream@DU?$char_traits@D@std@@@std@@QAE@XZ 004110b0 f i GameOverState.obj
 0001:00010150       ??1_Sentry_base@?$basic_ostream@DU?$char_traits@D@std@@@std@@QAE@XZ 00411150 f i GameOverState.obj
 0001:000101f0       ??1bad_cast@std@@UAE@XZ    004111f0 f i GameOverState.obj
 0001:00010210       ??1exception@std@@UAE@XZ   00411210 f i GameOverState.obj
 0001:00010240       ??1locale@std@@QAE@XZ      00411240 f i GameOverState.obj
 0001:000102e0       ??1sentry@?$basic_istream@DU?$char_traits@D@std@@@std@@QAE@XZ 004112e0 f i GameOverState.obj
 0001:00010300       ??1sentry@?$basic_ostream@DU?$char_traits@D@std@@@std@@QAE@XZ 00411300 f i GameOverState.obj
 0001:00010370       ??4?$vector@UhighscorePair@GameState@@V?$allocator@UhighscorePair@GameState@@@std@@@std@@QAEAAV01@$$QAV01@@Z 00411370 f i GameOverState.obj
 0001:00010430       ??A?$vector@UhighscorePair@GameState@@V?$allocator@UhighscorePair@GameState@@@std@@@std@@QAEAAUhighscorePair@GameState@@I@Z 00411430 f i GameOverState.obj
 0001:00010460       ??B?$fpos@U_Mbstatet@@@std@@QBE_JXZ 00411460 f i GameOverState.obj
 0001:00010490       ??Bsentry@?$basic_istream@DU?$char_traits@D@std@@@std@@QBE_NXZ 00411490 f i GameOverState.obj
 0001:000104b0       ??Bsentry@?$basic_ostream@DU?$char_traits@D@std@@@std@@QBE_NXZ 004114b0 f i GameOverState.obj
 0001:000104d0       ??D?$_String_const_iterator@V?$_String_val@U?$_Simple_types@D@std@@@std@@@std@@QBEABDXZ 004114d0 f i GameOverState.obj
 0001:000104f0       ??D?$_String_iterator@V?$_String_val@U?$_Simple_types@D@std@@@std@@@std@@QBEAADXZ 004114f0 f i GameOverState.obj
 0001:00010510       ??R<lambda_15711c68e099a15a58f4d77303cb286d>@@QBE@QADQBDID@Z 00411510 f i GameOverState.obj
 0001:00010580       ??R<lambda_9366063389c5f42a00a5088cf24e69de>@@QBE@QADIQBD@Z 00411580 f i GameOverState.obj
 0001:000105d0       ??R<lambda_ab246b20b9526e2ef7792587e4298a77>@@QBE@QADQBDI1I@Z 004115d0 f i GameOverState.obj
 0001:00010640       ??R?$default_delete@V_Facet_base@std@@@std@@QBEXPAV_Facet_base@1@@Z 00411640 f i GameOverState.obj
 0001:00010690       ??RcompareScores@GameOverState@@QBE_NABUhighscorePair@GameState@@0@Z 00411690 f i GameOverState.obj
 0001:000106d0       ??Y?$basic_string@DU?$char_traits@D@std@@V?$allocator@D@2@@std@@QAEAAV01@ABV01@@Z 004116d0 f i GameOverState.obj
 0001:000106f0       ??Y?$basic_string@DU?$char_traits@D@std@@V?$allocator@D@2@@std@@QAEAAV01@QBD@Z 004116f0 f i GameOverState.obj
 0001:00010710       ??_D?$basic_ifstream@DU?$char_traits@D@std@@@std@@QAEXXZ 00411710 f i GameOverState.obj
 0001:00010740       ??_D?$basic_ofstream@DU?$char_traits@D@std@@@std@@QAEXXZ 00411740 f i GameOverState.obj
 0001:0001076a       ??_E?$basic_ifstream@DU?$char_traits@D@std@@@std@@$4PPPPPPPM@A@AEPAXI@Z 0041176a f i GameOverState.obj
 0001:00010774       ??_E?$basic_ofstream@DU?$char_traits@D@std@@@std@@$4PPPPPPPM@A@AEPAXI@Z 00411774 f i GameOverState.obj
 0001:00010780       ??_E?$basic_filebuf@DU?$char_traits@D@std@@@std@@UAEPAXI@Z 00411780 f i GameOverState.obj
 0001:00010780       ??_G?$basic_filebuf@DU?$char_traits@D@std@@@std@@UAEPAXI@Z 00411780 f i GameOverState.obj
 0001:000107c0       ??_E?$basic_ifstream@DU?$char_traits@D@std@@@std@@UAEPAXI@Z 004117c0 f i GameOverState.obj
 0001:000107c0       ??_G?$basic_ifstream@DU?$char_traits@D@std@@@std@@UAEPAXI@Z 004117c0 f i GameOverState.obj
 0001:00010810       ??_E?$basic_ofstream@DU?$char_traits@D@std@@@std@@UAEPAXI@Z 00411810 f i GameOverState.obj
 0001:00010810       ??_G?$basic_ofstream@DU?$char_traits@D@std@@@std@@UAEPAXI@Z 00411810 f i GameOverState.obj
 0001:00010860       ??_Ebad_cast@std@@UAEPAXI@Z 00411860 f i GameOverState.obj
 0001:00010860       ??_Gbad_cast@std@@UAEPAXI@Z 00411860 f i GameOverState.obj
 0001:000108a0       ??_Gexception@std@@UAEPAXI@Z 004118a0 f i GameOverState.obj
 0001:000108a0       ??_Eexception@std@@UAEPAXI@Z 004118a0 f i GameOverState.obj
 0001:000108e0       ?_Calculate_growth@?$basic_string@DU?$char_traits@D@std@@V?$allocator@D@2@@std@@QBEII@Z 004118e0 f i GameOverState.obj
 0001:00010980       ?_Calculate_growth@?$vector@UhighscorePair@GameState@@V?$allocator@UhighscorePair@GameState@@@std@@@std@@ABEII@Z 00411980 f i GameOverState.obj
 0001:000109f0       ?_Change_array@?$vector@UhighscorePair@GameState@@V?$allocator@UhighscorePair@GameState@@@std@@@std@@AAEXQAUhighscorePair@GameState@@II@Z 004119f0 f i GameOverState.obj
 0001:00010ab0       ?_Check_offset@?$_String_val@U?$_Simple_types@D@std@@@std@@QBEXI@Z 00411ab0 f i GameOverState.obj
 0001:00010ae0       ?_Clamp_suffix_size@?$_String_val@U?$_Simple_types@D@std@@@std@@QBEIII@Z 00411ae0 f i GameOverState.obj
 0001:00010b20       ?_Construct@?$basic_string@DU?$char_traits@D@std@@V?$allocator@D@2@@std@@QAEXQAD0Urandom_access_iterator_tag@2@@Z 00411b20 f i GameOverState.obj
 0001:00010b60       ?_Destroy@?$vector@UhighscorePair@GameState@@V?$allocator@UhighscorePair@GameState@@@std@@@std@@AAEXPAUhighscorePair@GameState@@0@Z 00411b60 f i GameOverState.obj
 0001:00010b90       ?_Endwrite@?$basic_filebuf@DU?$char_traits@D@std@@@std@@IAE_NXZ 00411b90 f i GameOverState.obj
 0001:00010cf0       ?_Eos@?$basic_string@DU?$char_traits@D@std@@V?$allocator@D@2@@std@@QAEXI@Z 00411cf0 f i GameOverState.obj
 0001:00010d40       ?_Get_data@?$_String_alloc@U?$_String_base_types@DV?$allocator@D@std@@@std@@@std@@QAEAAV?$_String_val@U?$_Simple_types@D@std@@@2@XZ 00411d40 f i GameOverState.obj
 0001:00010d60       ?_Get_data@?$_String_alloc@U?$_String_base_types@DV?$allocator@D@std@@@std@@@std@@QBEABV?$_String_val@U?$_Simple_types@D@std@@@2@XZ 00411d60 f i GameOverState.obj
 0001:00010d80       ?_Get_data@?$_Vector_alloc@U?$_Vec_base_types@UhighscorePair@GameState@@V?$allocator@UhighscorePair@GameState@@@std@@@std@@@std@@QAEAAV?$_Vector_val@U?$_Simple_types@UhighscorePair@GameState@@@std@@@2@XZ 00411d80 f i GameOverState.obj
 0001:00010da0       ?_Get_data@?$_Vector_alloc@U?$_Vec_base_types@UhighscorePair@GameState@@V?$allocator@UhighscorePair@GameState@@@std@@@std@@@std@@QBEABV?$_Vector_val@U?$_Simple_types@UhighscorePair@GameState@@@std@@@2@XZ 00411da0 f i GameOverState.obj
 0001:00010dc0       ?_Get_first@?$_Compressed_pair@U?$default_delete@V_Facet_base@std@@@std@@PAV_Facet_base@2@$00@std@@QAEAAU?$default_delete@V_Facet_base@std@@@2@XZ 00411dc0 f i GameOverState.obj
 0001:00010de0       ?_Get_first@?$_Compressed_pair@V?$allocator@D@std@@V?$_String_val@U?$_Simple_types@D@std@@@2@$00@std@@QAEAAV?$allocator@D@2@XZ 00411de0 f i GameOverState.obj
 0001:00010e00       ?_Get_first@?$_Compressed_pair@V?$allocator@D@std@@V?$_String_val@U?$_Simple_types@D@std@@@2@$00@std@@QBEABV?$allocator@D@2@XZ 00411e00 f i GameOverState.obj
 0001:00010e20       ?_Get_first@?$_Compressed_pair@V?$allocator@UhighscorePair@GameState@@@std@@V?$_Vector_val@U?$_Simple_types@UhighscorePair@GameState@@@std@@@2@$00@std@@QAEAAV?$allocator@UhighscorePair@GameState@@@2@XZ 00411e20 f i GameOverState.obj
 0001:00010e40       ?_Get_first@?$_Compressed_pair@V?$allocator@UhighscorePair@GameState@@@std@@V?$_Vector_val@U?$_Simple_types@UhighscorePair@GameState@@@std@@@2@$00@std@@QBEABV?$allocator@UhighscorePair@GameState@@@2@XZ 00411e40 f i GameOverState.obj
 0001:00010e60       ?_Get_second@?$_Compressed_pair@U?$default_delete@V_Facet_base@std@@@std@@PAV_Facet_base@2@$00@std@@QAEAAPAV_Facet_base@2@XZ 00411e60 f i GameOverState.obj
 0001:00010e80       ?_Get_second@?$_Compressed_pair@U?$default_delete@V_Facet_base@std@@@std@@PAV_Facet_base@2@$00@std@@QBEABQAV_Facet_base@2@XZ 00411e80 f i GameOverState.obj
 0001:00010ea0       ?_Get_second@?$_Compressed_pair@V?$allocator@D@std@@V?$_String_val@U?$_Simple_types@D@std@@@2@$00@std@@QAEAAV?$_String_val@U?$_Simple_types@D@std@@@2@XZ 00411ea0 f i GameOverState.obj
 0001:00010ec0       ?_Get_second@?$_Compressed_pair@V?$allocator@D@std@@V?$_String_val@U?$_Simple_types@D@std@@@2@$00@std@@QBEABV?$_String_val@U?$_Simple_types@D@std@@@2@XZ 00411ec0 f i GameOverState.obj
 0001:00010ee0       ?_Get_second@?$_Compressed_pair@V?$allocator@UhighscorePair@GameState@@@std@@V?$_Vector_val@U?$_Simple_types@UhighscorePair@GameState@@@std@@@2@$00@std@@QAEAAV?$_Vector_val@U?$_Simple_types@UhighscorePair@GameState@@@std@@@2@XZ 00411ee0 f i GameOverState.obj
 0001:00010f00       ?_Get_second@?$_Compressed_pair@V?$allocator@UhighscorePair@GameState@@@std@@V?$_Vector_val@U?$_Simple_types@UhighscorePair@GameState@@@std@@@2@$00@std@@QBEABV?$_Vector_val@U?$_Simple_types@UhighscorePair@GameState@@@std@@@2@XZ 00411f00 f i GameOverState.obj
 0001:00010f20       ?_Getal@?$_String_alloc@U?$_String_base_types@DV?$allocator@D@std@@@std@@@std@@QAEAAV?$allocator@D@2@XZ 00411f20 f i GameOverState.obj
 0001:00010f40       ?_Getal@?$_String_alloc@U?$_String_base_types@DV?$allocator@D@std@@@std@@@std@@QBEABV?$allocator@D@2@XZ 00411f40 f i GameOverState.obj
 0001:00010f60       ?_Getal@?$_Vector_alloc@U?$_Vec_base_types@UhighscorePair@GameState@@V?$allocator@UhighscorePair@GameState@@@std@@@std@@@std@@QAEAAV?$allocator@UhighscorePair@GameState@@@2@XZ 00411f60 f i GameOverState.obj
 0001:00010f80       ?_Getal@?$_Vector_alloc@U?$_Vec_base_types@UhighscorePair@GameState@@V?$allocator@UhighscorePair@GameState@@@std@@@std@@@std@@QBEABV?$allocator@UhighscorePair@GameState@@@2@XZ 00411f80 f i GameOverState.obj
 0001:00010fa0       ?_Getfacet@locale@std@@QBEPBVfacet@12@I@Z 00411fa0 f i GameOverState.obj
 0001:00011050       ?_Has_unused_capacity@?$vector@UhighscorePair@GameState@@V?$allocator@UhighscorePair@GameState@@@std@@@std@@ABE_NXZ 00412050 f i GameOverState.obj
 0001:000110a0       ?_Init@?$basic_filebuf@DU?$char_traits@D@std@@@std@@IAEXPAU_iobuf@@W4_Initfl@12@@Z 004120a0 f i GameOverState.obj
 0001:000111a0       ?_Initcvt@?$basic_filebuf@DU?$char_traits@D@std@@@std@@IAEXABV?$codecvt@DDU_Mbstatet@@@2@@Z 004121a0 f i GameOverState.obj
 0001:00011200       ?_Large_string_engaged@?$_String_val@U?$_Simple_types@D@std@@@std@@QBE_NXZ 00412200 f i GameOverState.obj
 0001:00011240       ?_Lock@?$basic_filebuf@DU?$char_traits@D@std@@@std@@UAEXXZ 00412240 f i GameOverState.obj
 0001:00011270       ?_Move_alloc@?$_Vector_alloc@U?$_Vec_base_types@UhighscorePair@GameState@@V?$allocator@UhighscorePair@GameState@@@std@@@std@@@std@@QAEXAAV?$allocator@UhighscorePair@GameState@@@2@@Z 00412270 f i GameOverState.obj
 0001:000112a0       ?_Move_assign_from@?$vector@UhighscorePair@GameState@@V?$allocator@UhighscorePair@GameState@@@std@@@std@@AAEX$$QAV12@U?$integral_constant@_N$00@2@@Z 004122a0 f i GameOverState.obj
 0001:000112e0       ?_Move_from@?$vector@UhighscorePair@GameState@@V?$allocator@UhighscorePair@GameState@@@std@@@std@@AAEX$$QAV12@U?$integral_constant@_N$00@2@@Z 004122e0 f i GameOverState.obj
 0001:000113c0       ?_Myend@?$_Vector_alloc@U?$_Vec_base_types@UhighscorePair@GameState@@V?$allocator@UhighscorePair@GameState@@@std@@@std@@@std@@QAEAAPAUhighscorePair@GameState@@XZ 004123c0 f i GameOverState.obj
 0001:000113e0       ?_Myend@?$_Vector_alloc@U?$_Vec_base_types@UhighscorePair@GameState@@V?$allocator@UhighscorePair@GameState@@@std@@@std@@@std@@QBEABQAUhighscorePair@GameState@@XZ 004123e0 f i GameOverState.obj
 0001:00011400       ?_Myfirst@?$_Vector_alloc@U?$_Vec_base_types@UhighscorePair@GameState@@V?$allocator@UhighscorePair@GameState@@@std@@@std@@@std@@QAEAAPAUhighscorePair@GameState@@XZ 00412400 f i GameOverState.obj
 0001:00011420       ?_Myfirst@?$_Vector_alloc@U?$_Vec_base_types@UhighscorePair@GameState@@V?$allocator@UhighscorePair@GameState@@@std@@@std@@@std@@QBEABQAUhighscorePair@GameState@@XZ 00412420 f i GameOverState.obj
 0001:00011440       ?_Mylast@?$_Vector_alloc@U?$_Vec_base_types@UhighscorePair@GameState@@V?$allocator@UhighscorePair@GameState@@@std@@@std@@@std@@QAEAAPAUhighscorePair@GameState@@XZ 00412440 f i GameOverState.obj
 0001:00011460       ?_Mylast@?$_Vector_alloc@U?$_Vec_base_types@UhighscorePair@GameState@@V?$allocator@UhighscorePair@GameState@@@std@@@std@@@std@@QBEABQAUhighscorePair@GameState@@XZ 00412460 f i GameOverState.obj
 0001:00011480       ?_Myptr@?$_String_val@U?$_Simple_types@D@std@@@std@@QAEPADXZ 00412480 f i GameOverState.obj
 0001:000114d0       ?_Myptr@?$_String_val@U?$_Simple_types@D@std@@@std@@QBEPBDXZ 004124d0 f i GameOverState.obj
 0001:00011520       ?_Myptr@?$_Unique_ptr_base@V_Facet_base@std@@U?$default_delete@V_Facet_base@std@@@2@@std@@QAEAAPAV_Facet_base@2@XZ 00412520 f i GameOverState.obj
 0001:00011540       ?_Myptr@?$_Unique_ptr_base@V_Facet_base@std@@U?$default_delete@V_Facet_base@std@@@2@@std@@QBEABQAV_Facet_base@2@XZ 00412540 f i GameOverState.obj
 0001:00011560       ?_Orphan_all@?$_String_alloc@U?$_String_base_types@DV?$allocator@D@std@@@std@@@std@@QAEXXZ 00412560 f i GameOverState.obj
 0001:00011580       ?_Orphan_all@?$_Vector_alloc@U?$_Vec_base_types@UhighscorePair@GameState@@V?$allocator@UhighscorePair@GameState@@@std@@@std@@@std@@QAEXXZ 00412580 f i GameOverState.obj
 0001:000115a0       ?_Orphan_range@?$vector@UhighscorePair@GameState@@V?$allocator@UhighscorePair@GameState@@@std@@@std@@ABEXPAUhighscorePair@GameState@@0@Z 004125a0 f i GameOverState.obj
 0001:000115b0       ?_Release@?$_Uninitialized_backout_al@PAUhighscorePair@GameState@@V?$allocator@UhighscorePair@GameState@@@std@@@std@@QAEPAUhighscorePair@GameState@@XZ 004125b0 f i GameOverState.obj
 0001:000115e0       ?_Reset_back@?$basic_filebuf@DU?$char_traits@D@std@@@std@@AAEXXZ 004125e0 f i GameOverState.obj
 0001:00011630       ?_Set_back@?$basic_filebuf@DU?$char_traits@D@std@@@std@@AAEXXZ 00412630 f i GameOverState.obj
 0001:000116a0       ?_Swap_all@?$_Vector_alloc@U?$_Vec_base_types@UhighscorePair@GameState@@V?$allocator@UhighscorePair@GameState@@@std@@@std@@@std@@QAEXAAV12@@Z 004126a0 f i GameOverState.obj
 0001:000116d0       ?_Swap_all@_Container_base0@std@@QAEXAAU12@@Z 004126d0 f i GameOverState.obj
 0001:000116e0       ?_Tidy@?$vector@UhighscorePair@GameState@@V?$allocator@UhighscorePair@GameState@@@std@@@std@@AAEXXZ 004126e0 f i GameOverState.obj
 0001:00011790       ?_Tidy_deallocate@?$basic_string@DU?$char_traits@D@std@@V?$allocator@D@2@@std@@QAEXXZ 00412790 f i GameOverState.obj
 0001:00011860       ?_Tidy_init@?$basic_string@DU?$char_traits@D@std@@V?$allocator@D@2@@std@@QAEXXZ 00412860 f i GameOverState.obj
 0001:000118c0       ?_Umove@?$vector@UhighscorePair@GameState@@V?$allocator@UhighscorePair@GameState@@@std@@@std@@AAEPAUhighscorePair@GameState@@PAU34@00@Z 004128c0 f i GameOverState.obj
 0001:00011900       ?_Umove_if_noexcept1@?$vector@UhighscorePair@GameState@@V?$allocator@UhighscorePair@GameState@@@std@@@std@@AAEXPAUhighscorePair@GameState@@00U?$integral_constant@_N$00@2@@Z 00412900 f i GameOverState.obj
 0001:00011940       ?_Umove_if_noexcept@?$vector@UhighscorePair@GameState@@V?$allocator@UhighscorePair@GameState@@@std@@@std@@AAEXPAUhighscorePair@GameState@@00@Z 00412940 f i GameOverState.obj
 0001:00011980       ?_Unlock@?$basic_filebuf@DU?$char_traits@D@std@@@std@@UAEXXZ 00412980 f i GameOverState.obj
 0001:000119b0       ?_Unwrapped@?$_Vector_iterator@V?$_Vector_val@U?$_Simple_types@UhighscorePair@GameState@@@std@@@std@@@std@@QBEPAUhighscorePair@GameState@@XZ 004129b0 f i GameOverState.obj
 0001:000119d0       ?_Xlen@?$basic_string@DU?$char_traits@D@std@@V?$allocator@D@2@@std@@SAXXZ 004129d0 f i GameOverState.obj
 0001:000119f0       ?_Xlength@?$vector@UhighscorePair@GameState@@V?$allocator@UhighscorePair@GameState@@@std@@@std@@CAXXZ 004129f0 f i GameOverState.obj
 0001:00011a10       ?_Xran@?$_String_val@U?$_Simple_types@D@std@@@std@@SAXXZ 00412a10 f i GameOverState.obj
 0001:00011a30       ?allocate@?$allocator@D@std@@QAEPADI@Z 00412a30 f i GameOverState.obj
 0001:00011a60       ?allocate@?$allocator@UhighscorePair@GameState@@@std@@QAEPAUhighscorePair@GameState@@I@Z 00412a60 f i GameOverState.obj
 0001:00011a90       ?append@?$basic_string@DU?$char_traits@D@std@@V?$allocator@D@2@@std@@QAEAAV12@ABV12@@Z 00412a90 f i GameOverState.obj
 0001:00011ad0       ?append@?$basic_string@DU?$char_traits@D@std@@V?$allocator@D@2@@std@@QAEAAV12@QBD@Z 00412ad0 f i GameOverState.obj
 0001:00011b10       ?append@?$basic_string@DU?$char_traits@D@std@@V?$allocator@D@2@@std@@QAEAAV12@QBDI@Z 00412b10 f i GameOverState.obj
 0001:00011be0       ?assign@?$basic_string@DU?$char_traits@D@std@@V?$allocator@D@2@@std@@QAEAAV12@QBDI@Z 00412be0 f i GameOverState.obj
 0001:00011c90       ?assign@?$char_traits@D@std@@SAXAADABD@Z 00412c90 f i GameOverState.obj
 0001:00011cb0       ?begin@?$basic_string@DU?$char_traits@D@std@@V?$allocator@D@2@@std@@QAE?AV?$_String_iterator@V?$_String_val@U?$_Simple_types@D@std@@@std@@@2@XZ 00412cb0 f i GameOverState.obj
 0001:00011d40       ?begin@?$vector@UhighscorePair@GameState@@V?$allocator@UhighscorePair@GameState@@@std@@@std@@QAE?AV?$_Vector_iterator@V?$_Vector_val@U?$_Simple_types@UhighscorePair@GameState@@@std@@@std@@@2@XZ 00412d40 f i GameOverState.obj
 0001:00011dc0       ?capacity@?$vector@UhighscorePair@GameState@@V?$allocator@UhighscorePair@GameState@@@std@@@std@@QBEIXZ 00412dc0 f i GameOverState.obj
 0001:00011e00       ?clear@?$basic_string@DU?$char_traits@D@std@@V?$allocator@D@2@@std@@QAEXXZ 00412e00 f i GameOverState.obj
 0001:00011e50       ?close@?$basic_filebuf@DU?$char_traits@D@std@@@std@@QAEPAV12@XZ 00412e50 f i GameOverState.obj
 0001:00011ed0       ?close@?$basic_ifstream@DU?$char_traits@D@std@@@std@@QAEXXZ 00412ed0 f i GameOverState.obj
 0001:00011f10       ?close@?$basic_ofstream@DU?$char_traits@D@std@@@std@@QAEXXZ 00412f10 f i GameOverState.obj
 0001:00011f50       ?copy@?$char_traits@D@std@@SAPADQADQBDI@Z 00412f50 f i GameOverState.obj
 0001:00011f70       ?data@?$basic_string@DU?$char_traits@D@std@@V?$allocator@D@2@@std@@QBEPBDXZ 00412f70 f i GameOverState.obj
 0001:00011fd0       ?deallocate@?$allocator@D@std@@QAEXQADI@Z 00412fd0 f i GameOverState.obj
 0001:00012000       ?deallocate@?$allocator@UhighscorePair@GameState@@@std@@QAEXQAUhighscorePair@GameState@@I@Z 00413000 f i GameOverState.obj
 0001:00012030       ?end@?$vector@UhighscorePair@GameState@@V?$allocator@UhighscorePair@GameState@@@std@@@std@@QAE?AV?$_Vector_iterator@V?$_Vector_val@U?$_Simple_types@UhighscorePair@GameState@@@std@@@std@@@2@XZ 00413030 f i GameOverState.obj
 0001:000120b0       ?eof@?$char_traits@D@std@@SAHXZ 004130b0 f i GameOverState.obj
 0001:000120c0       ?eq_int_type@?$char_traits@D@std@@SA_NABH0@Z 004130c0 f i GameOverState.obj
 0001:000120f0       ?erase@?$basic_string@DU?$char_traits@D@std@@V?$allocator@D@2@@std@@QAEAAV12@II@Z 004130f0 f i GameOverState.obj
 0001:000121a0       ?front@?$basic_string@DU?$char_traits@D@std@@V?$allocator@D@2@@std@@QAEAADXZ 004131a0 f i GameOverState.obj
 0001:000121d0       ?get@?$unique_ptr@V_Facet_base@std@@U?$default_delete@V_Facet_base@std@@@2@@std@@QBEPAV_Facet_base@2@XZ 004131d0 f i GameOverState.obj
 0001:000121f0       ?get_deleter@?$_Unique_ptr_base@V_Facet_base@std@@U?$default_delete@V_Facet_base@std@@@2@@std@@QAEAAU?$default_delete@V_Facet_base@std@@@2@XZ 004131f0 f i GameOverState.obj
 0001:00012210       ?imbue@?$basic_filebuf@DU?$char_traits@D@std@@@std@@MAEXABVlocale@2@@Z 00413210 f i GameOverState.obj
 0001:00012240       ?length@?$char_traits@D@std@@SAIQBD@Z 00413240 f i GameOverState.obj
 0001:00012260       ?max@?$numeric_limits@_J@std@@SA_JXZ 00413260 f i GameOverState.obj
 0001:00012270       ?max_size@?$_Default_allocator_traits@V?$allocator@D@std@@@std@@SAIABV?$allocator@D@2@@Z 00413270 f i GameOverState.obj
 0001:00012280       ?max_size@?$_Default_allocator_traits@V?$allocator@UhighscorePair@GameState@@@std@@@std@@SAIABV?$allocator@UhighscorePair@GameState@@@2@@Z 00413280 f i GameOverState.obj
 0001:00012290       ?max_size@?$basic_string@DU?$char_traits@D@std@@V?$allocator@D@2@@std@@QBEIXZ 00413290 f i GameOverState.obj
 0001:00012310       ?max_size@?$vector@UhighscorePair@GameState@@V?$allocator@UhighscorePair@GameState@@@std@@@std@@QBEIXZ 00413310 f i GameOverState.obj
 0001:00012360       ?move@?$char_traits@D@std@@SAPADQADQBDI@Z 00413360 f i GameOverState.obj
 0001:00012380       ?not_eof@?$char_traits@D@std@@SAHABH@Z 00413380 f i GameOverState.obj
 0001:000123e0       ?open@?$basic_filebuf@DU?$char_traits@D@std@@@std@@QAEPAV12@PBDHH@Z 004133e0 f i GameOverState.obj
 0001:000124d0       ?open@?$basic_ofstream@DU?$char_traits@D@std@@@std@@QAEXPBDHH@Z 004134d0 f i GameOverState.obj
 0001:00012550       ?overflow@?$basic_filebuf@DU?$char_traits@D@std@@@std@@MAEHH@Z 00413550 f i GameOverState.obj
 0001:000127b0       ?pbackfail@?$basic_filebuf@DU?$char_traits@D@std@@@std@@MAEHH@Z 004137b0 f i GameOverState.obj
 0001:00012960       ?push_back@?$basic_string@DU?$char_traits@D@std@@V?$allocator@D@2@@std@@QAEXD@Z 00413960 f i GameOverState.obj
 0001:00012a20       ?push_back@?$vector@UhighscorePair@GameState@@V?$allocator@UhighscorePair@GameState@@@std@@@std@@QAEXABUhighscorePair@GameState@@@Z 00413a20 f i GameOverState.obj
 0001:00012a40       ?readInHighscores@GameState@@QAE?AV?$vector@UhighscorePair@GameState@@V?$allocator@UhighscorePair@GameState@@@std@@@std@@XZ 00413a40 f i GameOverState.obj
 0001:00012bf0       ?release@?$unique_ptr@V_Facet_base@std@@U?$default_delete@V_Facet_base@std@@@2@@std@@QAEPAV_Facet_base@2@XZ 00413bf0 f i GameOverState.obj
 0001:00012c30       ?seekoff@?$basic_filebuf@DU?$char_traits@D@std@@@std@@MAE?AV?$fpos@U_Mbstatet@@@2@_JHH@Z 00413c30 f i GameOverState.obj
 0001:00012d40       ?seekpos@?$basic_filebuf@DU?$char_traits@D@std@@@std@@MAE?AV?$fpos@U_Mbstatet@@@2@V32@H@Z 00413d40 f i GameOverState.obj
 0001:00012e10       ?setbuf@?$basic_filebuf@DU?$char_traits@D@std@@@std@@MAEPAV?$basic_streambuf@DU?$char_traits@D@std@@@2@PAD_J@Z 00413e10 f i GameOverState.obj
 0001:00012ea0       ?size@?$basic_string@DU?$char_traits@D@std@@V?$allocator@D@2@@std@@QBEIXZ 00413ea0 f i GameOverState.obj
 0001:00012ec0       ?size@?$vector@UhighscorePair@GameState@@V?$allocator@UhighscorePair@GameState@@@std@@@std@@QBEIXZ 00413ec0 f i GameOverState.obj
 0001:00012f00       ?state@?$fpos@U_Mbstatet@@@std@@QBE?AU_Mbstatet@@XZ 00413f00 f i GameOverState.obj
 0001:00012f30       ?sync@?$basic_filebuf@DU?$char_traits@D@std@@@std@@MAEHXZ 00413f30 f i GameOverState.obj
 0001:00012fc0       ?to_char_type@?$char_traits@D@std@@SADABH@Z 00413fc0 f i GameOverState.obj
 0001:00012fd0       ?to_int_type@?$char_traits@D@std@@SAHABD@Z 00413fd0 f i GameOverState.obj
 0001:00012fe0       ?to_string@std@@YA?AV?$basic_string@DU?$char_traits@D@std@@V?$allocator@D@2@@1@H@Z 00413fe0 f i GameOverState.obj
 0001:00013020       ?uflow@?$basic_filebuf@DU?$char_traits@D@std@@@std@@MAEHXZ 00414020 f i GameOverState.obj
 0001:00013340       ?underflow@?$basic_filebuf@DU?$char_traits@D@std@@@std@@MAEHXZ 00414340 f i GameOverState.obj
 0001:00013400       ?what@exception@std@@UBEPBDXZ 00414400 f i GameOverState.obj
 0001:00013440       ?xsgetn@?$basic_filebuf@DU?$char_traits@D@std@@@std@@MAE_JPAD_J@Z 00414440 f i GameOverState.obj
 0001:000135e0       ?xsputn@?$basic_filebuf@DU?$char_traits@D@std@@@std@@MAE_JPBD_J@Z 004145e0 f i GameOverState.obj
 0001:00013770       ??0GameState@@QAE@XZ       00414770 f   GameState.obj
 0001:00013790       ??1GameState@@QAE@XZ       00414790 f   GameState.obj
 0001:000137c0       ?KeyBoardInputDown@GameState@@UAEXH@Z 004147c0 f i GameState.obj
 0001:000137d0       ?MouseInput@GameState@@UAEXHHH@Z 004147d0 f i GameState.obj
 0001:000137e0       ?initialise@GameState@@UAEXXZ 004147e0 f i GameState.obj
 0001:000137f0       ?update@GameState@@UAEXXZ  004147f0 f i GameState.obj
 0001:00013800       ??0GameStateManager@@QAE@PAVGame@@@Z 00414800 f   GameStateManager.obj
 0001:000138a0       ??1GameStateManager@@QAE@XZ 004148a0 f   GameStateManager.obj
 0001:000138b0       ?update@GameStateManager@@QAEXXZ 004148b0 f   GameStateManager.obj
 0001:000138d0       ?KeyBoardDown@GameStateManager@@QAEXH@Z 004148d0 f   GameStateManager.obj
 0001:00013900       ?KeyBoardUp@GameStateManager@@QAEXH@Z 00414900 f   GameStateManager.obj
 0001:00013930       ?MouseInput@GameStateManager@@QAEXHHH@Z 00414930 f   GameStateManager.obj
 0001:00013960       ?changeState@GameStateManager@@QAEXD@Z 00414960 f   GameStateManager.obj
 0001:00013ae0       ?changeState@GameStateManager@@QAEXDH@Z 00414ae0 f   GameStateManager.obj
 0001:00013b90       ?changeState@GameStateManager@@QAEXDHH@Z 00414b90 f   GameStateManager.obj
 0001:00013d50       ??$?0$$V@?$_Compressed_pair@V?$allocator@PAVProjectileBasic@@@std@@V?$_Vector_val@U?$_Simple_types@PAVProjectileBasic@@@std@@@2@$00@std@@QAE@U_Zero_then_variadic_args_t@1@@Z 00414d50 f i GameStateManager.obj
 0001:00013d80       ??0?$_Vector_alloc@U?$_Vec_base_types@PAVProjectileBasic@@V?$allocator@PAVProjectileBasic@@@std@@@std@@@std@@QAE@XZ 00414d80 f i GameStateManager.obj
 0001:00013db0       ??0?$_Vector_const_iterator@V?$_Vector_val@U?$_Simple_types@UhighscorePair@GameState@@@std@@@std@@@std@@QAE@XZ 00414db0 f i GameStateManager.obj
 0001:00013dd0       ??0?$_Vector_iterator@V?$_Vector_val@U?$_Simple_types@UhighscorePair@GameState@@@std@@@std@@@std@@QAE@XZ 00414dd0 f i GameStateManager.obj
 0001:00013df0       ??0?$_Vector_val@U?$_Simple_types@PAVProjectileBasic@@@std@@@std@@QAE@XZ 00414df0 f i GameStateManager.obj
 0001:00013e30       ??0?$allocator@PAVProjectileBasic@@@std@@QAE@XZ 00414e30 f i GameStateManager.obj
 0001:00013e50       ??0?$basic_string@DU?$char_traits@D@std@@V?$allocator@D@2@@std@@QAE@QBD@Z 00414e50 f i GameStateManager.obj
 0001:00013ed0       ??0?$vector@PAVProjectileBasic@@V?$allocator@PAVProjectileBasic@@@std@@@std@@QAE@XZ 00414ed0 f i GameStateManager.obj
 0001:00013f20       ??0GameMain@@QAE@PAVGame@@H@Z 00414f20 f i GameStateManager.obj
 0001:00013fe0       ??0GameOverState@@QAE@PAVGame@@HH@Z 00414fe0 f i GameStateManager.obj
 0001:000140f0       ??0HighscoresState@@QAE@PAVGame@@@Z 004150f0 f i GameStateManager.obj
 0001:000141b0       ??0MenuState@@QAE@PAVGame@@@Z 004151b0 f i GameStateManager.obj
 0001:00014210       ?GetTime@BaseEngine@@QBEHXZ 00415210 f i GameStateManager.obj
 0001:00014230       ?GetXCentre@DisplayableObject@@QBEHXZ 00415230 f i GameStateManager.obj
 0001:00014260       ?GetYCentre@DisplayableObject@@QBEHXZ 00415260 f i GameStateManager.obj
 0001:00014290       ?KeyBoardInputDown@MenuState@@UAEXH@Z 00415290 f i GameStateManager.obj
 0001:000143b0       ?KeyBoardInputUp@MenuState@@UAEXH@Z 004153b0 f i GameStateManager.obj
 0001:00014450       ?MouseInput@MenuState@@UAEXHHH@Z 00415450 f i GameStateManager.obj
 0001:000144e0       ?SetExitWithCode@BaseEngine@@QAEXH@Z 004154e0 f i GameStateManager.obj
 0001:00014500       ?assign@?$basic_string@DU?$char_traits@D@std@@V?$allocator@D@2@@std@@QAEAAV12@QBD@Z 00415500 f i GameStateManager.obj
 0001:00014540       ?changeState@Game@@QAEXDH@Z 00415540 f i GameStateManager.obj
 0001:00014570       ?ensureOnScreenX@MovableObject@@QAEXH@Z 00415570 f i GameStateManager.obj
 0001:000145f0       ?ensureOnScreenY@MovableObject@@QAEXH@Z 004155f0 f i GameStateManager.obj
 0001:00014680       ?initialise@MenuState@@UAEXXZ 00415680 f i GameStateManager.obj
 0001:00014870       ?setMoveDown@MovableObject@@QAEX_N@Z 00415870 f i GameStateManager.obj
 0001:00014890       ?setMoveLeft@MovableObject@@QAEX_N@Z 00415890 f i GameStateManager.obj
 0001:000148b0       ?setMoveRight@MovableObject@@QAEX_N@Z 004158b0 f i GameStateManager.obj
 0001:000148d0       ?setMoveUp@MovableObject@@QAEX_N@Z 004158d0 f i GameStateManager.obj
 0001:000148f0       ?setXPosition@MovableObject@@QAEXH@Z 004158f0 f i GameStateManager.obj
 0001:00014930       ?setYPosition@MovableObject@@QAEXH@Z 00415930 f i GameStateManager.obj
 0001:00014970       ?update@MenuState@@UAEXXZ  00415970 f i GameStateManager.obj
 0001:00014a40       ??1HighscoresState@@QAE@XZ 00415a40 f   HighscoresState.obj
 0001:00014a70       ?initialise@HighscoresState@@UAEXXZ 00415a70 f   HighscoresState.obj
 0001:00014b40       ?update@HighscoresState@@UAEXXZ 00415b40 f   HighscoresState.obj
 0001:00015030       ?MouseInput@HighscoresState@@UAEXHHH@Z 00416030 f   HighscoresState.obj
 0001:00015040       ?KeyBoardInputDown@HighscoresState@@UAEXH@Z 00416040 f   HighscoresState.obj
 0001:00015280       ?DrawBackgroundPolygon@BaseEngine@@QAEXNNNNNNNNI@Z 00416280 f i HighscoresState.obj
 0001:00015340       ?DrawBackgroundRectangle@BaseEngine@@QAEXHHHHI@Z 00416340 f i HighscoresState.obj
 0001:00015380       _SDL_main                  00416380 f   mainfunction.obj
 0001:00015490       ??0Game@@QAE@XZ            00416490 f i mainfunction.obj
 0001:000154c0       ??1Game@@UAE@XZ            004164c0 f i mainfunction.obj
 0001:000154f0       ??_EGame@@UAEPAXI@Z        004164f0 f i mainfunction.obj
 0001:000154f0       ??_GGame@@UAEPAXI@Z        004164f0 f i mainfunction.obj
 0001:00015530       ?GetModifiedTime@BaseEngine@@UBEHXZ 00416530 f i mainfunction.obj
 0001:00015550       ??0BaseEngine@@QAE@H@Z     00416550 f   BaseEngine.obj
 0001:00015670       ??1BaseEngine@@UAE@XZ      00416670 f   BaseEngine.obj
 0001:000156d0       ?Initialise@BaseEngine@@QAEHPBDHH0H@Z 004166d0 f   BaseEngine.obj
 0001:00015890       ?Deinitialise@BaseEngine@@QAEXXZ 00416890 f   BaseEngine.obj
 0001:000158c0       ?MainLoop@BaseEngine@@QAEHXZ 004168c0 f   BaseEngine.obj
 0001:00015a80       ?DestroyOldObjects@BaseEngine@@UAEXXZ 00416a80 f   BaseEngine.obj
 0001:00015ac0       ?ResetObjectVector@BaseEngine@@QAEXXZ 00416ac0 f   BaseEngine.obj
 0001:00015b00       ?CreateObjectArray@BaseEngine@@QAEXH@Z 00416b00 f   BaseEngine.obj
 0001:00015b40       ?StoreObjectInArray@BaseEngine@@QAEXHPAVDisplayableObject@@@Z 00416b40 f   BaseEngine.obj
 0001:00015b70       ?ResizeVector@BaseEngine@@QAEXH@Z 00416b70 f   BaseEngine.obj
 0001:00015ba0       ?pushBack@BaseEngine@@QAEXPAVDisplayableObject@@@Z 00416ba0 f   BaseEngine.obj
 0001:00015bc0       ?getVectorSize@BaseEngine@@QAEHXZ 00416bc0 f   BaseEngine.obj
 0001:00015be0       ?eraseFromVector@BaseEngine@@QAEXPAVDisplayableObject@@@Z 00416be0 f   BaseEngine.obj
 0001:00015c40       ?eraseIndexFromVector@BaseEngine@@QAEXH@Z 00416c40 f   BaseEngine.obj
 0001:00015c90       ?IsKeyPressed@BaseEngine@@QBE_NH@Z 00416c90 f   BaseEngine.obj
 0001:00015cc0       ?GetDisplayableObject@BaseEngine@@QAEPAVDisplayableObject@@H@Z 00416cc0 f   BaseEngine.obj
 0001:00015d00       ?KeyUp@BaseEngine@@UAEXH@Z 00416d00 f   BaseEngine.obj
 0001:00015d10       ?KeyDown@BaseEngine@@UAEXH@Z 00416d10 f   BaseEngine.obj
 0001:00015d20       ?MouseMoved@BaseEngine@@UAEXHH@Z 00416d20 f   BaseEngine.obj
 0001:00015d30       ?MouseDown@BaseEngine@@UAEXHHH@Z 00416d30 f   BaseEngine.obj
 0001:00015d40       ?MouseUp@BaseEngine@@UAEXHHH@Z 00416d40 f   BaseEngine.obj
 0001:00015d50       ?GameInit@BaseEngine@@UAEHXZ 00416d50 f   BaseEngine.obj
 0001:00015d80       ?CleanUp@BaseEngine@@UAEXXZ 00416d80 f   BaseEngine.obj
 0001:00015d90       ?InitialiseObjects@BaseEngine@@UAEHXZ 00416d90 f   BaseEngine.obj
 0001:00015db0       ?SetupBackgroundBuffer@BaseEngine@@UAEXXZ 00416db0 f   BaseEngine.obj
 0001:00015dd0       ?GameAction@BaseEngine@@UAEXXZ 00416dd0 f   BaseEngine.obj
 0001:00015e10       ?UnDrawStrings@BaseEngine@@UAEXXZ 00416e10 f   BaseEngine.obj
 0001:00015e20       ?DrawStringsUnderneath@BaseEngine@@UAEXXZ 00416e20 f   BaseEngine.obj
 0001:00015e30       ?DrawStringsOnTop@BaseEngine@@UAEXXZ 00416e30 f   BaseEngine.obj
 0001:00015e40       ?DrawStrings@BaseEngine@@UAEXXZ 00416e40 f   BaseEngine.obj
 0001:00015e50       ?GameRender@BaseEngine@@UAEXXZ 00416e50 f   BaseEngine.obj
 0001:00016060       ?UndrawObjects@BaseEngine@@UAEXXZ 00417060 f   BaseEngine.obj
 0001:000160e0       ?DrawObjects@BaseEngine@@UAEXXZ 004170e0 f   BaseEngine.obj
 0001:00016160       ?DrawAllObjects@BaseEngine@@UAEXXZ 00417160 f   BaseEngine.obj
 0001:000161d0       ?UpdateAllObjects@BaseEngine@@UAEXH@Z 004171d0 f   BaseEngine.obj
 0001:00016260       ?NotifyAllObjects@BaseEngine@@QAEXH@Z 00417260 f   BaseEngine.obj
 0001:000162d0       ?NotifyAllObjectsGetCountNonZero@BaseEngine@@QAEHH@Z 004172d0 f   BaseEngine.obj
 0001:00016360       ?NotifyAllObjectsGetSum@BaseEngine@@QAEHH@Z 00417360 f   BaseEngine.obj
 0001:000163e0       ?NotifyAllObjectsGetMax@BaseEngine@@QAEHH@Z 004173e0 f   BaseEngine.obj
 0001:00016470       ?NotifyAllObjectsGetMin@BaseEngine@@QAEHH@Z 00417470 f   BaseEngine.obj
 0001:00016500       ?FillBackground@BaseEngine@@UAEXI@Z 00417500 f   BaseEngine.obj
 0001:00016560       ?CopyAllBackgroundBuffer@BaseEngine@@QAEXXZ 00417560 f   BaseEngine.obj
 0001:000165b0       ?CopyBackgroundPixels@BaseEngine@@QAEXHHHH@Z 004175b0 f   BaseEngine.obj
 0001:00016680       ?GetColour@BaseEngine@@QBEIH@Z 00417680 f   BaseEngine.obj
 0001:000168c0       ?DrawLine@BaseEngine@@QAEXNNNNIPAUSDL_Surface@@@Z 004178c0 f   BaseEngine.obj
 0001:00016a10       ?DrawThickLine@BaseEngine@@QAEXNNNNIHPAUSDL_Surface@@@Z 00417a10 f   BaseEngine.obj
 0001:00016e20       ?DrawVerticalSidedRegion@BaseEngine@@QAEXNNNNNNIPAUSDL_Surface@@@Z 00417e20 f   BaseEngine.obj
 0001:000170f0       ?DrawTriangle@BaseEngine@@QAEXNNNNNNIPAUSDL_Surface@@@Z 004180f0 f   BaseEngine.obj
 0001:00017370       ?DrawRectangle@BaseEngine@@QAEXHHHHIPAUSDL_Surface@@@Z 00418370 f   BaseEngine.obj
 0001:00017410       ?DrawOval@BaseEngine@@QAEXHHHHIPAUSDL_Surface@@@Z 00418410 f   BaseEngine.obj
 0001:00017580       ?DrawHollowOval@BaseEngine@@QAEXHHHHHHHHIPAUSDL_Surface@@@Z 00418580 f   BaseEngine.obj
 0001:000177e0       ?DrawPolygon@BaseEngine@@QAEXHPAN0IPAUSDL_Surface@@@Z 004187e0 f   BaseEngine.obj
 0001:00017f70       ?DrawString@BaseEngine@@QAEXHHPBDIPAVFont@@PAUSDL_Surface@@@Z 00418f70 f   BaseEngine.obj
 0001:000180a0       ?DrawShortenedArrow@BaseEngine@@QAEXHHHHHHIHHPAUSDL_Surface@@@Z 004190a0 f   BaseEngine.obj
 0001:000185a0       ?DrawShortenedLine@BaseEngine@@QAEXHHHHHHIHPAUSDL_Surface@@@Z 004195a0 f   BaseEngine.obj
 0001:00019690       ??$?0ABV?$allocator@PAVDisplayableObject@@@std@@$$V@?$_Compressed_pair@V?$allocator@PAVDisplayableObject@@@std@@V?$_Vector_val@U?$_Simple_types@PAVDisplayableObject@@@std@@@2@$00@std@@QAE@U_One_then_variadic_args_t@1@ABV?$allocator@PAVDisplayableObject@@@1@@Z 0041a690 f i BaseEngine.obj
 0001:000196c0       ??$?0ABV?$allocator@PAVDisplayableObject@@@std@@X@?$_Vector_alloc@U?$_Vec_base_types@PAVDisplayableObject@@V?$allocator@PAVDisplayableObject@@@std@@@std@@@std@@QAE@ABV?$allocator@PAVDisplayableObject@@@1@@Z 0041a6c0 f i BaseEngine.obj
 0001:00019700       ??$GetAngle@H@@YANHHHH@Z   0041a700 f i BaseEngine.obj
 0001:000197b0       ??$GetAngle@N@@YANNNNN@Z   0041a7b0 f i BaseEngine.obj
 0001:00019870       ??$Swap@H@@YAXAAH0@Z       0041a870 f i BaseEngine.obj
 0001:000198a0       ??$Swap@N@@YAXAAN0@Z       0041a8a0 f i BaseEngine.obj
 0001:000198e0       ??$_Adl_verify_range1@V?$_Vector_iterator@V?$_Vector_val@U?$_Simple_types@PAVDisplayableObject@@@std@@@std@@@std@@V12@@std@@YAXABV?$_Vector_iterator@V?$_Vector_val@U?$_Simple_types@PAVDisplayableObject@@@std@@@std@@@0@0U?$integral_constant@_N$0A@@0@@Z 0041a8e0 f i BaseEngine.obj
 0001:000198f0       ??$_Adl_verify_range@V?$_Vector_iterator@V?$_Vector_val@U?$_Simple_types@PAVDisplayableObject@@@std@@@std@@@std@@V12@@std@@YAXABV?$_Vector_iterator@V?$_Vector_val@U?$_Simple_types@PAVDisplayableObject@@@std@@@std@@@0@0@Z 0041a8f0 f i BaseEngine.obj
 0001:00019920       ??$_Const_cast@QAVDisplayableObject@@@std@@YA@PBQAVDisplayableObject@@@Z 0041a920 f i BaseEngine.obj
 0001:00019930       ??$_Copy_memmove@PAPAVDisplayableObject@@PAPAV1@@std@@YAPAPAVDisplayableObject@@PAPAV1@00@Z 0041a930 f i BaseEngine.obj
 0001:00019980       ??$_Destroy_range1@V?$allocator@PAVDisplayableObject@@@std@@@std@@YAXPAPAVDisplayableObject@@0AAV?$allocator@PAVDisplayableObject@@@0@U?$integral_constant@_N$00@0@@Z 0041a980 f i BaseEngine.obj
 0001:00019990       ??$_Destroy_range@V?$allocator@PAVDisplayableObject@@@std@@@std@@YAXPAPAVDisplayableObject@@0AAV?$allocator@PAVDisplayableObject@@@0@@Z 0041a990 f i BaseEngine.obj
 0001:000199c0       ??$_Emplace_back_with_unused_capacity@ABQAVDisplayableObject@@@?$vector@PAVDisplayableObject@@V?$allocator@PAVDisplayableObject@@@std@@@std@@AAE@ABQAVDisplayableObject@@@Z 0041a9c0 f i BaseEngine.obj
 0001:00019a70       ??$_Emplace_back_with_unused_capacity@PAVDisplayableObject@@@?$vector@PAVDisplayableObject@@V?$allocator@PAVDisplayableObject@@@std@@@std@@AAE@$$QAPAVDisplayableObject@@@Z 0041aa70 f i BaseEngine.obj
 0001:00019b20       ??$_Emplace_reallocate@ABQAVDisplayableObject@@@?$vector@PAVDisplayableObject@@V?$allocator@PAVDisplayableObject@@@std@@@std@@QAEPAPAVDisplayableObject@@QAPAV2@ABQAV2@@Z 0041ab20 f i BaseEngine.obj
 0001:00019d70       ??$_Emplace_reallocate@PAVDisplayableObject@@@?$vector@PAVDisplayableObject@@V?$allocator@PAVDisplayableObject@@@std@@@std@@QAEPAPAVDisplayableObject@@QAPAV2@$$QAPAV2@@Z 0041ad70 f i BaseEngine.obj
 0001:00019fc0       ??$_Find_unchecked1@PAPAVDisplayableObject@@PAV1@@std@@YAPAPAVDisplayableObject@@PAPAV1@QAPAV1@ABQAV1@U?$integral_constant@_N$0A@@0@@Z 0041afc0 f i BaseEngine.obj
 0001:0001a000       ??$_Find_unchecked@PAPAVDisplayableObject@@PAV1@@std@@YAPAPAVDisplayableObject@@QAPAV1@0ABQAV1@@Z 0041b000 f i BaseEngine.obj
 0001:0001a030       ??$_Get_unwrapped@PAVDisplayableObject@@@std@@YAPAPAVDisplayableObject@@QAPAV1@@Z 0041b030 f i BaseEngine.obj
 0001:0001a040       ??$_Get_unwrapped@V?$_Vector_iterator@V?$_Vector_val@U?$_Simple_types@PAVDisplayableObject@@@std@@@std@@@std@@$0A@@std@@YA@ABV?$_Vector_iterator@V?$_Vector_val@U?$_Simple_types@PAVDisplayableObject@@@std@@@std@@@0@@Z 0041b040 f i BaseEngine.obj
 0001:0001a050       ??$_Get_unwrapped_n@PAVDisplayableObject@@H$0A@@std@@YAPAPAVDisplayableObject@@QAPAV1@H@Z 0041b050 f i BaseEngine.obj
 0001:0001a060       ??$_Idl_distance1@PAPAVDisplayableObject@@PAPAV1@@std@@YAHABQAPAVDisplayableObject@@0Urandom_access_iterator_tag@0@@Z 0041b060 f i BaseEngine.obj
 0001:0001a080       ??$_Idl_distance@PAPAVDisplayableObject@@PAPAV1@@std@@YA@ABQAPAVDisplayableObject@@0@Z 0041b080 f i BaseEngine.obj
 0001:0001a0b0       ??$_Move_unchecked1@PAPAVDisplayableObject@@PAPAV1@@std@@YAPAPAVDisplayableObject@@PAPAV1@00U_Trivially_copyable_ptr_iterator_tag@0@@Z 0041b0b0 f i BaseEngine.obj
 0001:0001a0d0       ??$_Move_unchecked@PAPAVDisplayableObject@@PAPAV1@@std@@YAPAPAVDisplayableObject@@PAPAV1@00@Z 0041b0d0 f i BaseEngine.obj
 0001:0001a120       ??$_Ptr_move_cat@PAVDisplayableObject@@PAV1@@std@@YA?AU_Really_trivial_ptr_iterator_tag@0@ABQAPAVDisplayableObject@@0@Z 0041b120 f i BaseEngine.obj
 0001:0001a130       ??$_Resize@V<lambda_2afd52570c452b238925c6f475a76105>@@@?$vector@PAVDisplayableObject@@V?$allocator@PAVDisplayableObject@@@std@@@std@@AAEXIV<lambda_2afd52570c452b238925c6f475a76105>@@@Z 0041b130 f i BaseEngine.obj
 0001:0001a3a0       ??$_Seek_wrapped@PAVDisplayableObject@@@std@@YAXAAPAPAVDisplayableObject@@QAPAV1@@Z 0041b3a0 f i BaseEngine.obj
 0001:0001a3b0       ??$_Seek_wrapped@V?$_Vector_iterator@V?$_Vector_val@U?$_Simple_types@PAVDisplayableObject@@@std@@@std@@@std@@PAPAVDisplayableObject@@$0A@@std@@YAXAAV?$_Vector_iterator@V?$_Vector_val@U?$_Simple_types@PAVDisplayableObject@@@std@@@std@@@0@ABQAPAVDisplayableObject@@@Z 0041b3b0 f i BaseEngine.obj
 0001:0001a3d0       ??$_Unfancy@PAVDisplayableObject@@@std@@YAPAPAVDisplayableObject@@PAPAV1@@Z 0041b3d0 f i BaseEngine.obj
 0001:0001a3e0       ??$_Uninitialized_move@PAPAVDisplayableObject@@PAPAV1@V?$allocator@PAVDisplayableObject@@@std@@@std@@YAPAPAVDisplayableObject@@QAPAV1@0PAPAV1@AAV?$allocator@PAVDisplayableObject@@@0@@Z 0041b3e0 f i BaseEngine.obj
 0001:0001a4a0       ??$_Uninitialized_move_al_unchecked@PAVDisplayableObject@@PAV1@V?$allocator@PAVDisplayableObject@@@std@@@std@@YAPAPAVDisplayableObject@@QAPAV1@00AAV?$allocator@PAVDisplayableObject@@@0@U_Really_trivial_ptr_iterator_tag@0@U?$integral_constant@_N$00@0@@Z 0041b4a0 f i BaseEngine.obj
 0001:0001a4c0       ??$_Uninitialized_value_construct_n1@PAPAVDisplayableObject@@IV?$allocator@PAVDisplayableObject@@@std@@@std@@YAPAPAVDisplayableObject@@PAPAV1@IAAV?$allocator@PAVDisplayableObject@@@0@U?$integral_constant@_N$00@0@@Z 0041b4c0 f i BaseEngine.obj
 0001:0001a4f0       ??$_Uninitialized_value_construct_n@PAPAVDisplayableObject@@IV?$allocator@PAVDisplayableObject@@@std@@@std@@YAPAPAVDisplayableObject@@PAPAV1@IAAV?$allocator@PAVDisplayableObject@@@0@@Z 0041b4f0 f i BaseEngine.obj
 0001:0001a520       ??$_Zero_range@PAPAVDisplayableObject@@@std@@YAPAPAVDisplayableObject@@QAPAV1@0@Z 0041b520 f i BaseEngine.obj
 0001:0001a560       ??$addressof@V?$_Vector_val@U?$_Simple_types@PAVDisplayableObject@@@std@@@std@@@std@@YAPAV?$_Vector_val@U?$_Simple_types@PAVDisplayableObject@@@std@@@0@AAV10@@Z 0041b560 f i BaseEngine.obj
 0001:0001a570       ??$construct@PAVDisplayableObject@@ABQAV1@@?$_Default_allocator_traits@V?$allocator@PAVDisplayableObject@@@std@@@std@@SAXAAV?$allocator@PAVDisplayableObject@@@1@QAPAVDisplayableObject@@ABQAV3@@Z 0041b570 f i BaseEngine.obj
 0001:0001a5b0       ??$construct@PAVDisplayableObject@@PAV1@@?$_Default_allocator_traits@V?$allocator@PAVDisplayableObject@@@std@@@std@@SAXAAV?$allocator@PAVDisplayableObject@@@1@QAPAVDisplayableObject@@$$QAPAV3@@Z 0041b5b0 f i BaseEngine.obj
 0001:0001a5f0       ??$destroy@PAVDisplayableObject@@@?$_Default_allocator_traits@V?$allocator@PAVDisplayableObject@@@std@@@std@@SAXAAV?$allocator@PAVDisplayableObject@@@1@QAPAVDisplayableObject@@@Z 0041b5f0 f i BaseEngine.obj
 0001:0001a600       ??$emplace_back@ABQAVDisplayableObject@@@?$vector@PAVDisplayableObject@@V?$allocator@PAVDisplayableObject@@@std@@@std@@QAE@ABQAVDisplayableObject@@@Z 0041b600 f i BaseEngine.obj
 0001:0001a670       ??$emplace_back@PAVDisplayableObject@@@?$vector@PAVDisplayableObject@@V?$allocator@PAVDisplayableObject@@@std@@@std@@QAE@$$QAPAVDisplayableObject@@@Z 0041b670 f i BaseEngine.obj
 0001:0001a6e0       ??$forward@ABQAVDisplayableObject@@@std@@YAABQAVDisplayableObject@@ABQAV1@@Z 0041b6e0 f i BaseEngine.obj
 0001:0001a6f0       ??$forward@ABV?$allocator@PAVDisplayableObject@@@std@@@std@@YAABV?$allocator@PAVDisplayableObject@@@0@ABV10@@Z 0041b6f0 f i BaseEngine.obj
 0001:0001a700       ??$forward@PAVDisplayableObject@@@std@@YA$$QAPAVDisplayableObject@@AAPAV1@@Z 0041b700 f i BaseEngine.obj
 0001:0001a710       ??$move@AAPAVDisplayableObject@@@std@@YA$$QAPAVDisplayableObject@@AAPAV1@@Z 0041b710 f i BaseEngine.obj
 0001:0001a720       ??$remove@V?$_Vector_iterator@V?$_Vector_val@U?$_Simple_types@PAVDisplayableObject@@@std@@@std@@@std@@PAVDisplayableObject@@@std@@YA?AV?$_Vector_iterator@V?$_Vector_val@U?$_Simple_types@PAVDisplayableObject@@@std@@@std@@@0@V10@V10@ABQAVDisplayableObject@@@Z 0041b720 f i BaseEngine.obj
 0001:0001a800       ??0<lambda_2afd52570c452b238925c6f475a76105>@@QAE@QAV?$vector@PAVDisplayableObject@@V?$allocator@PAVDisplayableObject@@@std@@@std@@@Z 0041b800 f i BaseEngine.obj
 0001:0001a820       ??0?$_Vector_const_iterator@V?$_Vector_val@U?$_Simple_types@PAVDisplayableObject@@@std@@@std@@@std@@QAE@PAPAVDisplayableObject@@PBU_Container_base0@1@@Z 0041b820 f i BaseEngine.obj
 0001:0001a850       ??0?$_Vector_iterator@V?$_Vector_val@U?$_Simple_types@PAVDisplayableObject@@@std@@@std@@@std@@QAE@PAPAVDisplayableObject@@PBU_Container_base0@1@@Z 0041b850 f i BaseEngine.obj
 0001:0001a880       ??0?$_Vector_val@U?$_Simple_types@PAVDisplayableObject@@@std@@@std@@QAE@XZ 0041b880 f i BaseEngine.obj
 0001:0001a8c0       ??0?$allocator@PAVDisplayableObject@@@std@@QAE@XZ 0041b8c0 f i BaseEngine.obj
 0001:0001a8e0       ??0?$vector@PAVDisplayableObject@@V?$allocator@PAVDisplayableObject@@@std@@@std@@QAE@IABV?$allocator@PAVDisplayableObject@@@1@@Z 0041b8e0 f i BaseEngine.obj
 0001:0001a9d0       ??1?$vector@PAVDisplayableObject@@V?$allocator@PAVDisplayableObject@@@std@@@std@@QAE@XZ 0041b9d0 f i BaseEngine.obj
 0001:0001aa20       ??A?$vector@PAVDisplayableObject@@V?$allocator@PAVDisplayableObject@@@std@@@std@@QAEAAPAVDisplayableObject@@I@Z 0041ba20 f i BaseEngine.obj
 0001:0001aa50       ??H?$_Vector_iterator@V?$_Vector_val@U?$_Simple_types@PAVDisplayableObject@@@std@@@std@@@std@@QBE?AV01@H@Z 0041ba50 f i BaseEngine.obj
 0001:0001aa90       ??R<lambda_2afd52570c452b238925c6f475a76105>@@QBE@PAPAVDisplayableObject@@I@Z 0041ba90 f i BaseEngine.obj
 0001:0001aac0       ??Y?$_Vector_const_iterator@V?$_Vector_val@U?$_Simple_types@PAVDisplayableObject@@@std@@@std@@@std@@QAEAAV01@H@Z 0041bac0 f i BaseEngine.obj
 0001:0001ab00       ??Y?$_Vector_iterator@V?$_Vector_val@U?$_Simple_types@PAVDisplayableObject@@@std@@@std@@@std@@QAEAAV01@H@Z 0041bb00 f i BaseEngine.obj
 0001:0001ab30       ??_GBaseEngine@@UAEPAXI@Z  0041bb30 f i BaseEngine.obj
 0001:0001ab30       ??_EBaseEngine@@UAEPAXI@Z  0041bb30 f i BaseEngine.obj
 0001:0001ab70       ?GetFont@Font@@QAEPAU_TTF_Font@@XZ 0041bb70 f i BaseEngine.obj
 0001:0001ab90       ?IsTimeToActWithSleep@BaseEngine@@QBE_NXZ 0041bb90 f i BaseEngine.obj
 0001:0001ac10       ?SafeSetPixel@BaseEngine@@QAEXHHIPAUSDL_Surface@@@Z 0041bc10 f i BaseEngine.obj
 0001:0001ac90       ?SymbolToKeycode@BaseEngine@@SAHH@Z 0041bc90 f i BaseEngine.obj
 0001:0001b010       ?_Buy@?$vector@PAVDisplayableObject@@V?$allocator@PAVDisplayableObject@@@std@@@std@@AAE_NI@Z 0041c010 f i BaseEngine.obj
 0001:0001b0e0       ?_Calculate_growth@?$vector@PAVDisplayableObject@@V?$allocator@PAVDisplayableObject@@@std@@@std@@ABEII@Z 0041c0e0 f i BaseEngine.obj
 0001:0001b150       ?_Change_array@?$vector@PAVDisplayableObject@@V?$allocator@PAVDisplayableObject@@@std@@@std@@AAEXQAPAVDisplayableObject@@II@Z 0041c150 f i BaseEngine.obj
 0001:0001b210       ?_Destroy@?$vector@PAVDisplayableObject@@V?$allocator@PAVDisplayableObject@@@std@@@std@@AAEXPAPAVDisplayableObject@@0@Z 0041c210 f i BaseEngine.obj
 0001:0001b240       ?_Get_data@?$_Vector_alloc@U?$_Vec_base_types@PAVDisplayableObject@@V?$allocator@PAVDisplayableObject@@@std@@@std@@@std@@QAEAAV?$_Vector_val@U?$_Simple_types@PAVDisplayableObject@@@std@@@2@XZ 0041c240 f i BaseEngine.obj
 0001:0001b260       ?_Get_data@?$_Vector_alloc@U?$_Vec_base_types@PAVDisplayableObject@@V?$allocator@PAVDisplayableObject@@@std@@@std@@@std@@QBEABV?$_Vector_val@U?$_Simple_types@PAVDisplayableObject@@@std@@@2@XZ 0041c260 f i BaseEngine.obj
 0001:0001b280       ?_Get_first@?$_Compressed_pair@V?$allocator@PAVDisplayableObject@@@std@@V?$_Vector_val@U?$_Simple_types@PAVDisplayableObject@@@std@@@2@$00@std@@QAEAAV?$allocator@PAVDisplayableObject@@@2@XZ 0041c280 f i BaseEngine.obj
 0001:0001b2a0       ?_Get_first@?$_Compressed_pair@V?$allocator@PAVDisplayableObject@@@std@@V?$_Vector_val@U?$_Simple_types@PAVDisplayableObject@@@std@@@2@$00@std@@QBEABV?$allocator@PAVDisplayableObject@@@2@XZ 0041c2a0 f i BaseEngine.obj
 0001:0001b2c0       ?_Get_second@?$_Compressed_pair@V?$allocator@PAVDisplayableObject@@@std@@V?$_Vector_val@U?$_Simple_types@PAVDisplayableObject@@@std@@@2@$00@std@@QAEAAV?$_Vector_val@U?$_Simple_types@PAVDisplayableObject@@@std@@@2@XZ 0041c2c0 f i BaseEngine.obj
 0001:0001b2e0       ?_Get_second@?$_Compressed_pair@V?$allocator@PAVDisplayableObject@@@std@@V?$_Vector_val@U?$_Simple_types@PAVDisplayableObject@@@std@@@2@$00@std@@QBEABV?$_Vector_val@U?$_Simple_types@PAVDisplayableObject@@@std@@@2@XZ 0041c2e0 f i BaseEngine.obj
 0001:0001b300       ?_Getal@?$_Vector_alloc@U?$_Vec_base_types@PAVDisplayableObject@@V?$allocator@PAVDisplayableObject@@@std@@@std@@@std@@QAEAAV?$allocator@PAVDisplayableObject@@@2@XZ 0041c300 f i BaseEngine.obj
 0001:0001b320       ?_Getal@?$_Vector_alloc@U?$_Vec_base_types@PAVDisplayableObject@@V?$allocator@PAVDisplayableObject@@@std@@@std@@@std@@QBEABV?$allocator@PAVDisplayableObject@@@2@XZ 0041c320 f i BaseEngine.obj
 0001:0001b340       ?_Has_unused_capacity@?$vector@PAVDisplayableObject@@V?$allocator@PAVDisplayableObject@@@std@@@std@@ABE_NXZ 0041c340 f i BaseEngine.obj
 0001:0001b390       ?_Myend@?$_Vector_alloc@U?$_Vec_base_types@PAVDisplayableObject@@V?$allocator@PAVDisplayableObject@@@std@@@std@@@std@@QAEAAPAPAVDisplayableObject@@XZ 0041c390 f i BaseEngine.obj
 0001:0001b3b0       ?_Myend@?$_Vector_alloc@U?$_Vec_base_types@PAVDisplayableObject@@V?$allocator@PAVDisplayableObject@@@std@@@std@@@std@@QBEABQAPAVDisplayableObject@@XZ 0041c3b0 f i BaseEngine.obj
 0001:0001b3d0       ?_Myfirst@?$_Vector_alloc@U?$_Vec_base_types@PAVDisplayableObject@@V?$allocator@PAVDisplayableObject@@@std@@@std@@@std@@QAEAAPAPAVDisplayableObject@@XZ 0041c3d0 f i BaseEngine.obj
 0001:0001b3f0       ?_Myfirst@?$_Vector_alloc@U?$_Vec_base_types@PAVDisplayableObject@@V?$allocator@PAVDisplayableObject@@@std@@@std@@@std@@QBEABQAPAVDisplayableObject@@XZ 0041c3f0 f i BaseEngine.obj
 0001:0001b410       ?_Mylast@?$_Vector_alloc@U?$_Vec_base_types@PAVDisplayableObject@@V?$allocator@PAVDisplayableObject@@@std@@@std@@@std@@QAEAAPAPAVDisplayableObject@@XZ 0041c410 f i BaseEngine.obj
 0001:0001b430       ?_Mylast@?$_Vector_alloc@U?$_Vec_base_types@PAVDisplayableObject@@V?$allocator@PAVDisplayableObject@@@std@@@std@@@std@@QBEABQAPAVDisplayableObject@@XZ 0041c430 f i BaseEngine.obj
 0001:0001b450       ?_Orphan_all@?$_Vector_alloc@U?$_Vec_base_types@PAVDisplayableObject@@V?$allocator@PAVDisplayableObject@@@std@@@std@@@std@@QAEXXZ 0041c450 f i BaseEngine.obj
 0001:0001b470       ?_Orphan_range@?$vector@PAVDisplayableObject@@V?$allocator@PAVDisplayableObject@@@std@@@std@@ABEXPAPAVDisplayableObject@@0@Z 0041c470 f i BaseEngine.obj
 0001:0001b480       ?_Seek_to@?$_Vector_const_iterator@V?$_Vector_val@U?$_Simple_types@PAVDisplayableObject@@@std@@@std@@@std@@QAEXPBQAVDisplayableObject@@@Z 0041c480 f i BaseEngine.obj
 0001:0001b4b0       ?_Tidy@?$vector@PAVDisplayableObject@@V?$allocator@PAVDisplayableObject@@@std@@@std@@AAEXXZ 0041c4b0 f i BaseEngine.obj
 0001:0001b560       ?_Udefault@?$vector@PAVDisplayableObject@@V?$allocator@PAVDisplayableObject@@@std@@@std@@AAEPAPAVDisplayableObject@@PAPAV3@I@Z 0041c560 f i BaseEngine.obj
 0001:0001b590       ?_Umove@?$vector@PAVDisplayableObject@@V?$allocator@PAVDisplayableObject@@@std@@@std@@AAEPAPAVDisplayableObject@@PAPAV3@00@Z 0041c590 f i BaseEngine.obj
 0001:0001b5d0       ?_Umove_if_noexcept1@?$vector@PAVDisplayableObject@@V?$allocator@PAVDisplayableObject@@@std@@@std@@AAEXPAPAVDisplayableObject@@00U?$integral_constant@_N$00@2@@Z 0041c5d0 f i BaseEngine.obj
 0001:0001b610       ?_Umove_if_noexcept@?$vector@PAVDisplayableObject@@V?$allocator@PAVDisplayableObject@@@std@@@std@@AAEXPAPAVDisplayableObject@@00@Z 0041c610 f i BaseEngine.obj
 0001:0001b650       ?_Unwrapped@?$_Vector_iterator@V?$_Vector_val@U?$_Simple_types@PAVDisplayableObject@@@std@@@std@@@std@@QBEPAPAVDisplayableObject@@XZ 0041c650 f i BaseEngine.obj
 0001:0001b670       ?_Verify_offset@?$_Vector_const_iterator@V?$_Vector_val@U?$_Simple_types@PAVDisplayableObject@@@std@@@std@@@std@@QBEXH@Z 0041c670 f i BaseEngine.obj
 0001:0001b680       ?_Xlength@?$vector@PAVDisplayableObject@@V?$allocator@PAVDisplayableObject@@@std@@@std@@CAXXZ 0041c680 f i BaseEngine.obj
 0001:0001b6a0       ?allocate@?$allocator@PAVDisplayableObject@@@std@@QAEPAPAVDisplayableObject@@I@Z 0041c6a0 f i BaseEngine.obj
 0001:0001b6d0       ?begin@?$vector@PAVDisplayableObject@@V?$allocator@PAVDisplayableObject@@@std@@@std@@QAE?AV?$_Vector_iterator@V?$_Vector_val@U?$_Simple_types@PAVDisplayableObject@@@std@@@std@@@2@XZ 0041c6d0 f i BaseEngine.obj
 0001:0001b750       ?capacity@?$vector@PAVDisplayableObject@@V?$allocator@PAVDisplayableObject@@@std@@@std@@QBEIXZ 0041c750 f i BaseEngine.obj
 0001:0001b790       ?clear@?$vector@PAVDisplayableObject@@V?$allocator@PAVDisplayableObject@@@std@@@std@@QAEXXZ 0041c790 f i BaseEngine.obj
 0001:0001b820       ?deallocate@?$allocator@PAVDisplayableObject@@@std@@QAEXQAPAVDisplayableObject@@I@Z 0041c820 f i BaseEngine.obj
 0001:0001b850       ?empty@?$vector@PAVDisplayableObject@@V?$allocator@PAVDisplayableObject@@@std@@@std@@QBE_NXZ 0041c850 f i BaseEngine.obj
 0001:0001b8a0       ?end@?$vector@PAVDisplayableObject@@V?$allocator@PAVDisplayableObject@@@std@@@std@@QAE?AV?$_Vector_iterator@V?$_Vector_val@U?$_Simple_types@PAVDisplayableObject@@@std@@@std@@@2@XZ 0041c8a0 f i BaseEngine.obj
 0001:0001b920       ?erase@?$vector@PAVDisplayableObject@@V?$allocator@PAVDisplayableObject@@@std@@@std@@QAE?AV?$_Vector_iterator@V?$_Vector_val@U?$_Simple_types@PAVDisplayableObject@@@std@@@std@@@2@V?$_Vector_const_iterator@V?$_Vector_val@U?$_Simple_types@PAVDisplayableObject@@@std@@@std@@@2@@Z 0041c920 f i BaseEngine.obj
 0001:0001b9e0       ?max_size@?$_Default_allocator_traits@V?$allocator@PAVDisplayableObject@@@std@@@std@@SAIABV?$allocator@PAVDisplayableObject@@@2@@Z 0041c9e0 f i BaseEngine.obj
 0001:0001b9f0       ?max_size@?$vector@PAVDisplayableObject@@V?$allocator@PAVDisplayableObject@@@std@@@std@@QBEIXZ 0041c9f0 f i BaseEngine.obj
 0001:0001ba40       ?push_back@?$vector@PAVDisplayableObject@@V?$allocator@PAVDisplayableObject@@@std@@@std@@QAEX$$QAPAVDisplayableObject@@@Z 0041ca40 f i BaseEngine.obj
 0001:0001ba70       ?push_back@?$vector@PAVDisplayableObject@@V?$allocator@PAVDisplayableObject@@@std@@@std@@QAEXABQAVDisplayableObject@@@Z 0041ca70 f i BaseEngine.obj
 0001:0001ba90       ?resize@?$vector@PAVDisplayableObject@@V?$allocator@PAVDisplayableObject@@@std@@@std@@QAEXI@Z 0041ca90 f i BaseEngine.obj
 0001:0001bad0       ?size@?$vector@PAVDisplayableObject@@V?$allocator@PAVDisplayableObject@@@std@@@std@@QBEIXZ 0041cad0 f i BaseEngine.obj
 0001:0001bb10       _fprintf                   0041cb10 f i BaseEngine.obj
 0001:0001bb50       ??0DisplayableObject@@QAE@PAVBaseEngine@@@Z 0041cb50 f   DisplayableObject.obj
 0001:0001bbd0       ??1DisplayableObject@@UAE@XZ 0041cbd0 f   DisplayableObject.obj
 0001:0001bbf0       ?Draw@DisplayableObject@@UAEXXZ 0041cbf0 f   DisplayableObject.obj
 0001:0001bc90       ?RedrawBackground@DisplayableObject@@UAEXXZ 0041cc90 f   DisplayableObject.obj
 0001:0001bcd0       ?DoUpdate@DisplayableObject@@UAEXH@Z 0041ccd0 f   DisplayableObject.obj
 0001:0001bce0       ?StoreLastScreenPositionForUndraw@DisplayableObject@@QAEXXZ 0041cce0 f   DisplayableObject.obj
 0001:0001bd70       ??_GDisplayableObject@@UAEPAXI@Z 0041cd70 f i DisplayableObject.obj
 0001:0001bd70       ??_EDisplayableObject@@UAEPAXI@Z 0041cd70 f i DisplayableObject.obj
 0001:0001bdb0       ?SafeSetScreenPixel@BaseEngine@@QAEXHHI@Z 0041cdb0 f i DisplayableObject.obj
 0001:0001bdf0       ??0FontManager@@QAE@XZ     0041cdf0 f   FontManager.obj
 0001:0001be60       ??1FontManager@@QAE@XZ     0041ce60 f   FontManager.obj
 0001:0001bee0       ?GetFont@FontManager@@QAEPAVFont@@PBDH@Z 0041cee0 f   FontManager.obj
 0001:0001c080       ?LoadFonts@FontManager@@QAEXXZ 0041d080 f   FontManager.obj
 0001:0001c1b0       ??$GrowArray@PAVFont@@@@YAPAPAVFont@@PAPAV0@AAHH@Z 0041d1b0 f i FontManager.obj
 0001:0001c270       ??0Font@@QAE@PBDH@Z        0041d270 f i FontManager.obj
 0001:0001c2f0       ??1Font@@QAE@XZ            0041d2f0 f i FontManager.obj
 0001:0001c370       ??_GFont@@QAEPAXI@Z        0041d370 f i FontManager.obj
 0001:0001c3b0       ?GetName@Font@@QAEPBDXZ    0041d3b0 f i FontManager.obj
 0001:0001c3d0       ?GetSize@Font@@QAEHXZ      0041d3d0 f i FontManager.obj
 0001:0001c3f0       ?LoadImage@ImageData@@QAE_NPBD@Z 0041d3f0 f   JPGImage.obj
 0001:0001c630       ?RenderImage@ImageData@@QBEXPAUSDL_Surface@@HHHHHH@Z 0041d630 f   JPGImage.obj
 0001:0001c760       ?RenderImageWithMask@ImageData@@QBEXPAUSDL_Surface@@HHHHHH@Z 0041d760 f   JPGImage.obj
 0001:0001c8d0       ?ShrinkFrom@ImageData@@QAEXPBV1@H@Z 0041d8d0 f   JPGImage.obj
 0001:0001cac0       ?ResizeFrom@ImageData@@QAEXPBV1@HH_N@Z 0041dac0 f   JPGImage.obj
 0001:0001ce90       ?FlexibleRenderImageWithMask@ImageData@@QBEXPAUSDL_Surface@@HHHHHHHHHHHHHH@Z 0041de90 f   JPGImage.obj
 0001:0001d350       ?InitImage@@YAXXZ          0041e350 f   JPGImage.obj
 0001:0001d360       ?DeinitImage@@YAXXZ        0041e360 f   JPGImage.obj
 0001:0001d750       ?GetXForRotationAndCrop@@YAHHHHHHH@Z 0041e750 f i JPGImage.obj
 0001:0001d7c0       ?GetYForRotationAndCrop@@YAHHHHHHH@Z 0041e7c0 f i JPGImage.obj
 0001:0001d830       ??0MapTileManager@@QAE@XZ  0041e830 f   MapTileManager.obj
 0001:0001d860       ??1MapTileManager@@QAE@XZ  0041e860 f   MapTileManager.obj
 0001:0001d880       ?DrawTileAt@MapTileManager@@UBEXPAVBaseEngine@@PAUSDL_Surface@@HHHH@Z 0041e880 f   MapTileManager.obj
 0001:0001d910       ?initialiseBuildableTiles@MapTileManager@@QAEXPAH@Z 0041e910 f   MapTileManager.obj
 0001:0001d990       ?initialiseTurretGrid@MapTileManager@@QAEXXZ 0041e990 f   MapTileManager.obj
 0001:0001d9f0       ?setTurretInGrid@MapTileManager@@QAEXHHPAVDisplayableObject@@@Z 0041e9f0 f   MapTileManager.obj
 0001:0001da30       ?getTurretInGrid@MapTileManager@@QAEPAVDisplayableObject@@HH@Z 0041ea30 f   MapTileManager.obj
 0001:0001da70       ?getTurretInGridIndex@MapTileManager@@QAEPAVDisplayableObject@@H@Z 0041ea70 f   MapTileManager.obj
 0001:0001da90       ?isTileBuildable@MapTileManager@@QAE_NHH@Z 0041ea90 f   MapTileManager.obj
 0001:0001dae0       ?getTileBuildValue@MapTileManager@@QAEHHH@Z 0041eae0 f   MapTileManager.obj
 0001:0001db20       ?setTileBuildable@MapTileManager@@QAEXHHH@Z 0041eb20 f   MapTileManager.obj
 0001:0001dc30       ??0TileManager@@QAE@HH@Z   0041ec30 f i MapTileManager.obj
 0001:0001dcb0       ??1TileManager@@QAE@XZ     0041ecb0 f i MapTileManager.obj
 0001:0001dd00       ?GetValue@TileManager@@QBEHHH@Z 0041ed00 f i MapTileManager.obj
 0001:0001dd30       ?drawMenu@MenuState@@QAEXXZ 0041ed30 f   MenuState.obj
 0001:0001e9a0       ?selectionFromGrid@MenuState@@QAEXXZ 0041f9a0 f   MenuState.obj
 0001:0001e9e0       ?selectionChanged@MenuState@@QAE_NXZ 0041f9e0 f   MenuState.obj
 0001:0001ed50       ?DrawBackgroundTriangle@BaseEngine@@QAEXHHHHHHI@Z 0041fd50 f i MenuState.obj
 0001:0001ede0       ??0MenuTileManager@@QAE@HPAVGame@@@Z 0041fde0 f   MenuTileManager.obj
 0001:0001efc0       ??1MenuTileManager@@QAE@XZ 0041ffc0 f   MenuTileManager.obj
 0001:0001efe0       ?DrawTileAt@MenuTileManager@@UBEXPAVBaseEngine@@PAUSDL_Surface@@HHHH@Z 0041ffe0 f   MenuTileManager.obj
 0001:0001f080       ?getSelection@MenuTileManager@@QAEHHH@Z 00420080 f   MenuTileManager.obj
 0001:0001f0c0       ?drawGroup@MenuTileManager@@QAEXHHH@Z 004200c0 f   MenuTileManager.obj
 0001:0001f250       ?updateGroup@MenuTileManager@@QAEXH@Z 00420250 f   MenuTileManager.obj
 0001:0001f3c0       ?resetGroups@MenuTileManager@@QAEXXZ 004203c0 f   MenuTileManager.obj
 0001:0001f5d0       ?SetBaseTilesPositionOnScreen@TileManager@@QAEXHH@Z 004205d0 f i MenuTileManager.obj
 0001:0001f600       ?UpdateTile@TileManager@@QAEXPAVBaseEngine@@HHH@Z 00420600 f i MenuTileManager.obj
 0001:0001f660       ??0MovableObject@@QAE@PAVGame@@@Z 00420660 f   MovableObject.obj
 0001:0001f780       ??1MovableObject@@UAE@XZ   00420780 f   MovableObject.obj
 0001:0001f7a0       ?Draw@MovableObject@@UAEXXZ 004207a0 f   MovableObject.obj
 0001:0001f870       ?DoUpdate@MovableObject@@UAEXH@Z 00420870 f   MovableObject.obj
 0001:0001f9e0       ??_EMovableObject@@UAEPAXI@Z 004209e0 f i MovableObject.obj
 0001:0001f9e0       ??_GMovableObject@@UAEPAXI@Z 004209e0 f i MovableObject.obj
 0001:0001fa20       ??0ProjectileBasic@@QAE@PAVGame@@PAVGameMain@@PAVEnemy@@HHHHM@Z 00420a20 f   ProjectileBasic.obj
 0001:0001fdc0       ??0ProjectileBasic@@QAE@PAVGame@@PAVGameMain@@HHHV?$vector@HV?$allocator@H@std@@@std@@@Z 00420dc0 f   ProjectileBasic.obj
 0001:0001ffb0       ??1ProjectileBasic@@UAE@XZ 00420fb0 f   ProjectileBasic.obj
 0001:0001ffe0       ?Draw@ProjectileBasic@@UAEXXZ 00420fe0 f   ProjectileBasic.obj
 0001:000200b0       ?DoUpdate@ProjectileBasic@@UAEXH@Z 004210b0 f   ProjectileBasic.obj
 0001:000206f0       ??$?0$$V@?$_Compressed_pair@V?$allocator@H@std@@V?$_Vector_val@U?$_Simple_types@H@std@@@2@$00@std@@QAE@U_Zero_then_variadic_args_t@1@@Z 004216f0 f i ProjectileBasic.obj
 0001:00020720       ??$_Adl_verify_range1@PAHPAH@std@@YAXABQAH0U?$integral_constant@_N$0A@@0@@Z 00421720 f i ProjectileBasic.obj
 0001:00020730       ??$_Adl_verify_range@PAHPAH@std@@YAXABQAH0@Z 00421730 f i ProjectileBasic.obj
 0001:00020760       ??$_Advance1@PAHH@std@@YAXAAPAHHUrandom_access_iterator_tag@0@@Z 00421760 f i ProjectileBasic.obj
 0001:00020780       ??$_Assign_range@PAH@?$vector@HV?$allocator@H@std@@@std@@AAEXPAH0Uforward_iterator_tag@1@@Z 00421780 f i ProjectileBasic.obj
 0001:000209a0       ??$_Copy_memmove@PAHPAH@std@@YAPAHPAH00@Z 004219a0 f i ProjectileBasic.obj
 0001:000209f0       ??$_Copy_unchecked1@PAHPAH@std@@YAPAHPAH00U_Trivially_copyable_ptr_iterator_tag@0@@Z 004219f0 f i ProjectileBasic.obj
 0001:00020a10       ??$_Copy_unchecked@PAHPAH@std@@YAPAHPAH00@Z 00421a10 f i ProjectileBasic.obj
 0001:00020a60       ??$_Destroy_range1@V?$allocator@H@std@@@std@@YAXPAH0AAV?$allocator@H@0@U?$integral_constant@_N$00@0@@Z 00421a60 f i ProjectileBasic.obj
 0001:00020a70       ??$_Destroy_range@V?$allocator@H@std@@@std@@YAXPAH0AAV?$allocator@H@0@@Z 00421a70 f i ProjectileBasic.obj
 0001:00020aa0       ??$_Distance1@PAH@std@@YAHPAH0Urandom_access_iterator_tag@0@@Z 00421aa0 f i ProjectileBasic.obj
 0001:00020ac0       ??$_Emplace_back_with_unused_capacity@ABH@?$vector@HV?$allocator@H@std@@@std@@AAE@ABH@Z 00421ac0 f i ProjectileBasic.obj
 0001:00020b70       ??$_Emplace_reallocate@ABH@?$vector@HV?$allocator@H@std@@@std@@QAEPAHQAHABH@Z 00421b70 f i ProjectileBasic.obj
 0001:00020dc0       ??$_Get_unwrapped@H@std@@YAPAHQAH@Z 00421dc0 f i ProjectileBasic.obj
 0001:00020dd0       ??$_Get_unwrapped_n@HH$0A@@std@@YAPAHQAHH@Z 00421dd0 f i ProjectileBasic.obj
 0001:00020de0       ??$_Idl_distance1@PAHPAH@std@@YAHABQAH0Urandom_access_iterator_tag@0@@Z 00421de0 f i ProjectileBasic.obj
 0001:00020e00       ??$_Idl_distance@PAHPAH@std@@YA@ABQAH0@Z 00421e00 f i ProjectileBasic.obj
 0001:00020e30       ??$_Pocca@V?$allocator@H@std@@@std@@YAXAAV?$allocator@H@0@ABV10@@Z 00421e30 f i ProjectileBasic.obj
 0001:00020e60       ??$_Pocca@V?$allocator@H@std@@@std@@YAXAAV?$allocator@H@0@ABV10@U?$integral_constant@_N$0A@@0@@Z 00421e60 f i ProjectileBasic.obj
 0001:00020e70       ??$_Ptr_copy_cat@HH@std@@YA?AU_Really_trivial_ptr_iterator_tag@0@ABQAH0@Z 00421e70 f i ProjectileBasic.obj
 0001:00020e80       ??$_Ptr_move_cat@HH@std@@YA?AU_Really_trivial_ptr_iterator_tag@0@ABQAH0@Z 00421e80 f i ProjectileBasic.obj
 0001:00020e90       ??$_Seek_wrapped@H@std@@YAXAAPAHQAH@Z 00421e90 f i ProjectileBasic.obj
 0001:00020ea0       ??$_Ucopy@PAH@?$vector@HV?$allocator@H@std@@@std@@AAEPAHPAH00@Z 00421ea0 f i ProjectileBasic.obj
 0001:00020ee0       ??$_Unfancy@H@std@@YAPAHPAH@Z 00421ee0 f i ProjectileBasic.obj
 0001:00020ef0       ??$_Uninitialized_copy@PAHPAHV?$allocator@H@std@@@std@@YAPAHQAH0PAHAAV?$allocator@H@0@@Z 00421ef0 f i ProjectileBasic.obj
 0001:00020fb0       ??$_Uninitialized_copy_al_unchecked@HHV?$allocator@H@std@@@std@@YAPAHQAH00AAV?$allocator@H@0@U_Really_trivial_ptr_iterator_tag@0@U?$integral_constant@_N$00@0@@Z 00421fb0 f i ProjectileBasic.obj
 0001:00020fd0       ??$_Uninitialized_move@PAHPAHV?$allocator@H@std@@@std@@YAPAHQAH0PAHAAV?$allocator@H@0@@Z 00421fd0 f i ProjectileBasic.obj
 0001:00021090       ??$_Uninitialized_move_al_unchecked@HHV?$allocator@H@std@@@std@@YAPAHQAH00AAV?$allocator@H@0@U_Really_trivial_ptr_iterator_tag@0@U?$integral_constant@_N$00@0@@Z 00422090 f i ProjectileBasic.obj
 0001:000210b0       ??$addressof@$$CBV?$vector@HV?$allocator@H@std@@@std@@@std@@YAPBV?$vector@HV?$allocator@H@std@@@0@ABV10@@Z 004220b0 f i ProjectileBasic.obj
 0001:000210c0       ??$advance@PAHH@std@@YAXAAPAHH@Z 004220c0 f i ProjectileBasic.obj
 0001:000210f0       ??$assign@PAHX@?$vector@HV?$allocator@H@std@@@std@@QAEXPAH0@Z 004220f0 f i ProjectileBasic.obj
 0001:00021150       ??$construct@HABH@?$_Default_allocator_traits@V?$allocator@H@std@@@std@@SAXAAV?$allocator@H@1@QAHABH@Z 00422150 f i ProjectileBasic.obj
 0001:00021190       ??$distance@PAH@std@@YAHPAH0@Z 00422190 f i ProjectileBasic.obj
 0001:000211c0       ??$emplace_back@ABH@?$vector@HV?$allocator@H@std@@@std@@QAE@ABH@Z 004221c0 f i ProjectileBasic.obj
 0001:00021230       ??$forward@ABH@std@@YAABHABH@Z 00422230 f i ProjectileBasic.obj
 0001:00021240       ??$next@PAH@std@@YAPAHPAHH@Z 00422240 f i ProjectileBasic.obj
 0001:00021260       ??0?$_Vector_alloc@U?$_Vec_base_types@HV?$allocator@H@std@@@std@@@std@@QAE@XZ 00422260 f i ProjectileBasic.obj
 0001:00021290       ??0?$_Vector_val@U?$_Simple_types@H@std@@@std@@QAE@XZ 00422290 f i ProjectileBasic.obj
 0001:000212d0       ??0?$allocator@H@std@@QAE@XZ 004222d0 f i ProjectileBasic.obj
 0001:000212f0       ??0?$vector@HV?$allocator@H@std@@@std@@QAE@XZ 004222f0 f i ProjectileBasic.obj
 0001:00021340       ??1?$vector@HV?$allocator@H@std@@@std@@QAE@XZ 00422340 f i ProjectileBasic.obj
 0001:00021390       ??4?$vector@HV?$allocator@H@std@@@std@@QAEAAV01@ABV01@@Z 00422390 f i ProjectileBasic.obj
 0001:00021410       ??A?$vector@HV?$allocator@H@std@@@std@@QAEAAHI@Z 00422410 f i ProjectileBasic.obj
 0001:00021440       ??_GProjectileBasic@@UAEPAXI@Z 00422440 f i ProjectileBasic.obj
 0001:00021440       ??_EProjectileBasic@@UAEPAXI@Z 00422440 f i ProjectileBasic.obj
 0001:00021480       ?_Buy@?$vector@HV?$allocator@H@std@@@std@@AAE_NI@Z 00422480 f i ProjectileBasic.obj
 0001:00021550       ?_Calculate_growth@?$vector@HV?$allocator@H@std@@@std@@ABEII@Z 00422550 f i ProjectileBasic.obj
 0001:000215c0       ?_Change_array@?$vector@HV?$allocator@H@std@@@std@@AAEXQAHII@Z 004225c0 f i ProjectileBasic.obj
 0001:00021680       ?_Copy_alloc@?$_Vector_alloc@U?$_Vec_base_types@HV?$allocator@H@std@@@std@@@std@@QAEXABV?$allocator@H@2@@Z 00422680 f i ProjectileBasic.obj
 0001:000216b0       ?_Destroy@?$vector@HV?$allocator@H@std@@@std@@AAEXPAH0@Z 004226b0 f i ProjectileBasic.obj
 0001:000216e0       ?_Get_data@?$_Vector_alloc@U?$_Vec_base_types@HV?$allocator@H@std@@@std@@@std@@QAEAAV?$_Vector_val@U?$_Simple_types@H@std@@@2@XZ 004226e0 f i ProjectileBasic.obj
 0001:00021700       ?_Get_data@?$_Vector_alloc@U?$_Vec_base_types@HV?$allocator@H@std@@@std@@@std@@QBEABV?$_Vector_val@U?$_Simple_types@H@std@@@2@XZ 00422700 f i ProjectileBasic.obj
 0001:00021720       ?_Get_first@?$_Compressed_pair@V?$allocator@H@std@@V?$_Vector_val@U?$_Simple_types@H@std@@@2@$00@std@@QAEAAV?$allocator@H@2@XZ 00422720 f i ProjectileBasic.obj
 0001:00021740       ?_Get_first@?$_Compressed_pair@V?$allocator@H@std@@V?$_Vector_val@U?$_Simple_types@H@std@@@2@$00@std@@QBEABV?$allocator@H@2@XZ 00422740 f i ProjectileBasic.obj
 0001:00021760       ?_Get_second@?$_Compressed_pair@V?$allocator@H@std@@V?$_Vector_val@U?$_Simple_types@H@std@@@2@$00@std@@QAEAAV?$_Vector_val@U?$_Simple_types@H@std@@@2@XZ 00422760 f i ProjectileBasic.obj
 0001:00021780       ?_Get_second@?$_Compressed_pair@V?$allocator@H@std@@V?$_Vector_val@U?$_Simple_types@H@std@@@2@$00@std@@QBEABV?$_Vector_val@U?$_Simple_types@H@std@@@2@XZ 00422780 f i ProjectileBasic.obj
 0001:000217a0       ?_Getal@?$_Vector_alloc@U?$_Vec_base_types@HV?$allocator@H@std@@@std@@@std@@QAEAAV?$allocator@H@2@XZ 004227a0 f i ProjectileBasic.obj
 0001:000217c0       ?_Getal@?$_Vector_alloc@U?$_Vec_base_types@HV?$allocator@H@std@@@std@@@std@@QBEABV?$allocator@H@2@XZ 004227c0 f i ProjectileBasic.obj
 0001:000217e0       ?_Has_unused_capacity@?$vector@HV?$allocator@H@std@@@std@@ABE_NXZ 004227e0 f i ProjectileBasic.obj
 0001:00021830       ?_Myend@?$_Vector_alloc@U?$_Vec_base_types@HV?$allocator@H@std@@@std@@@std@@QAEAAPAHXZ 00422830 f i ProjectileBasic.obj
 0001:00021850       ?_Myend@?$_Vector_alloc@U?$_Vec_base_types@HV?$allocator@H@std@@@std@@@std@@QBEABQAHXZ 00422850 f i ProjectileBasic.obj
 0001:00021870       ?_Myfirst@?$_Vector_alloc@U?$_Vec_base_types@HV?$allocator@H@std@@@std@@@std@@QAEAAPAHXZ 00422870 f i ProjectileBasic.obj
 0001:00021890       ?_Myfirst@?$_Vector_alloc@U?$_Vec_base_types@HV?$allocator@H@std@@@std@@@std@@QBEABQAHXZ 00422890 f i ProjectileBasic.obj
 0001:000218b0       ?_Mylast@?$_Vector_alloc@U?$_Vec_base_types@HV?$allocator@H@std@@@std@@@std@@QAEAAPAHXZ 004228b0 f i ProjectileBasic.obj
 0001:000218d0       ?_Mylast@?$_Vector_alloc@U?$_Vec_base_types@HV?$allocator@H@std@@@std@@@std@@QBEABQAHXZ 004228d0 f i ProjectileBasic.obj
 0001:000218f0       ?_Orphan_all@?$_Vector_alloc@U?$_Vec_base_types@HV?$allocator@H@std@@@std@@@std@@QAEXXZ 004228f0 f i ProjectileBasic.obj
 0001:00021910       ?_Orphan_range@?$vector@HV?$allocator@H@std@@@std@@ABEXPAH0@Z 00422910 f i ProjectileBasic.obj
 0001:00021920       ?_Tidy@?$vector@HV?$allocator@H@std@@@std@@AAEXXZ 00422920 f i ProjectileBasic.obj
 0001:000219d0       ?_Umove@?$vector@HV?$allocator@H@std@@@std@@AAEPAHPAH00@Z 004229d0 f i ProjectileBasic.obj
 0001:00021a10       ?_Umove_if_noexcept1@?$vector@HV?$allocator@H@std@@@std@@AAEXPAH00U?$integral_constant@_N$00@2@@Z 00422a10 f i ProjectileBasic.obj
 0001:00021a50       ?_Umove_if_noexcept@?$vector@HV?$allocator@H@std@@@std@@AAEXPAH00@Z 00422a50 f i ProjectileBasic.obj
 0001:00021a90       ?_Xlength@?$vector@HV?$allocator@H@std@@@std@@CAXXZ 00422a90 f i ProjectileBasic.obj
 0001:00021ab0       ?allocate@?$allocator@H@std@@QAEPAHI@Z 00422ab0 f i ProjectileBasic.obj
 0001:00021ae0       ?capacity@?$vector@HV?$allocator@H@std@@@std@@QBEIXZ 00422ae0 f i ProjectileBasic.obj
 0001:00021b20       ?checkIfPrevHit@ProjectileBasic@@UAE_NH@Z 00422b20 f i ProjectileBasic.obj
 0001:00021b90       ?deallocate@?$allocator@H@std@@QAEXQAHI@Z 00422b90 f i ProjectileBasic.obj
 0001:00021bc0       ?destroySelf@ProjectileBasic@@UAEXXZ 00422bc0 f i ProjectileBasic.obj
 0001:00021be0       ?getDamage@ProjectileBasic@@UAEHXZ 00422be0 f i ProjectileBasic.obj
 0001:00021c00       ?getRadius@ProjectileBasic@@UAEHXZ 00422c00 f i ProjectileBasic.obj
 0001:00021c20       ?getSpeed@ProjectileBasic@@UAEHXZ 00422c20 f i ProjectileBasic.obj
 0001:00021c40       ?getSpeedX@ProjectileBasic@@UAEHXZ 00422c40 f i ProjectileBasic.obj
 0001:00021c60       ?getSpeedY@ProjectileBasic@@UAEHXZ 00422c60 f i ProjectileBasic.obj
 0001:00021c80       ?hit@ProjectileBasic@@UAEXHH@Z 00422c80 f i ProjectileBasic.obj
 0001:00021ce0       ?max_size@?$_Default_allocator_traits@V?$allocator@H@std@@@std@@SAIABV?$allocator@H@2@@Z 00422ce0 f i ProjectileBasic.obj
 0001:00021cf0       ?max_size@?$vector@HV?$allocator@H@std@@@std@@QBEIXZ 00422cf0 f i ProjectileBasic.obj
 0001:00021d40       ?push_back@?$vector@HV?$allocator@H@std@@@std@@QAEXABH@Z 00422d40 f i ProjectileBasic.obj
 0001:00021d60       ?setSpeedX@ProjectileBasic@@UAEXH@Z 00422d60 f i ProjectileBasic.obj
 0001:00021d80       ?setSpeedY@ProjectileBasic@@UAEXH@Z 00422d80 f i ProjectileBasic.obj
 0001:00021da0       ?size@?$vector@HV?$allocator@H@std@@@std@@QBEIXZ 00422da0 f i ProjectileBasic.obj
 0001:00021de0       ?updateSubClass@ProjectileBasic@@UAEXXZ 00422de0 f i ProjectileBasic.obj
 0001:00021df0       _fabsf                     00422df0 f i ProjectileBasic.obj
 0001:00021e20       ??0ProjectileCannon@@QAE@PAVGame@@PAVGameMain@@PAVEnemy@@HHHHM@Z 00422e20 f   ProjectileCannon.obj
 0001:00021fb0       ??1ProjectileCannon@@UAE@XZ 00422fb0 f   ProjectileCannon.obj
 0001:00021ff0       ?Draw@ProjectileCannon@@UAEXXZ 00422ff0 f   ProjectileCannon.obj
 0001:00022190       ??$?0$$V@?$_Compressed_pair@V?$allocator@PAVProjectileCannonFrag@@@std@@V?$_Vector_val@U?$_Simple_types@PAVProjectileCannonFrag@@@std@@@2@$00@std@@QAE@U_Zero_then_variadic_args_t@1@@Z 00423190 f i ProjectileCannon.obj
 0001:000221c0       ??$?0V?$allocator@H@std@@$$V@?$_Compressed_pair@V?$allocator@H@std@@V?$_Vector_val@U?$_Simple_types@H@std@@@2@$00@std@@QAE@U_One_then_variadic_args_t@1@$$QAV?$allocator@H@1@@Z 004231c0 f i ProjectileCannon.obj
 0001:000221f0       ??$?0V?$allocator@H@std@@X@?$_Vector_alloc@U?$_Vec_base_types@HV?$allocator@H@std@@@std@@@std@@QAE@$$QAV?$allocator@H@1@@Z 004231f0 f i ProjectileCannon.obj
 0001:00022230       ??$_Copy_memmove@PAPAVProjectileCannonFrag@@PAPAV1@@std@@YAPAPAVProjectileCannonFrag@@PAPAV1@00@Z 00423230 f i ProjectileCannon.obj
 0001:00022280       ??$_Destroy_range1@V?$allocator@PAVProjectileCannonFrag@@@std@@@std@@YAXPAPAVProjectileCannonFrag@@0AAV?$allocator@PAVProjectileCannonFrag@@@0@U?$integral_constant@_N$00@0@@Z 00423280 f i ProjectileCannon.obj
 0001:00022290       ??$_Destroy_range@V?$allocator@PAVProjectileCannonFrag@@@std@@@std@@YAXPAPAVProjectileCannonFrag@@0AAV?$allocator@PAVProjectileCannonFrag@@@0@@Z 00423290 f i ProjectileCannon.obj
 0001:000222c0       ??$_Emplace_back_with_unused_capacity@ABQAVProjectileCannonFrag@@@?$vector@PAVProjectileCannonFrag@@V?$allocator@PAVProjectileCannonFrag@@@std@@@std@@AAE@ABQAVProjectileCannonFrag@@@Z 004232c0 f i ProjectileCannon.obj
 0001:00022370       ??$_Emplace_reallocate@ABQAVProjectileCannonFrag@@@?$vector@PAVProjectileCannonFrag@@V?$allocator@PAVProjectileCannonFrag@@@std@@@std@@QAEPAPAVProjectileCannonFrag@@QAPAV2@ABQAV2@@Z 00423370 f i ProjectileCannon.obj
 0001:000225c0       ??$_Get_unwrapped@PAVProjectileCannonFrag@@@std@@YAPAPAVProjectileCannonFrag@@QAPAV1@@Z 004235c0 f i ProjectileCannon.obj
 0001:000225d0       ??$_Get_unwrapped_n@PAVProjectileCannonFrag@@H$0A@@std@@YAPAPAVProjectileCannonFrag@@QAPAV1@H@Z 004235d0 f i ProjectileCannon.obj
 0001:000225e0       ??$_Idl_distance1@PAPAVProjectileCannonFrag@@PAPAV1@@std@@YAHABQAPAVProjectileCannonFrag@@0Urandom_access_iterator_tag@0@@Z 004235e0 f i ProjectileCannon.obj
 0001:00022600       ??$_Idl_distance@PAPAVProjectileCannonFrag@@PAPAV1@@std@@YA@ABQAPAVProjectileCannonFrag@@0@Z 00423600 f i ProjectileCannon.obj
 0001:00022630       ??$_Ptr_move_cat@PAVProjectileCannonFrag@@PAV1@@std@@YA?AU_Really_trivial_ptr_iterator_tag@0@ABQAPAVProjectileCannonFrag@@0@Z 00423630 f i ProjectileCannon.obj
 0001:00022640       ??$_Seek_wrapped@PAVProjectileCannonFrag@@@std@@YAXAAPAPAVProjectileCannonFrag@@QAPAV1@@Z 00423640 f i ProjectileCannon.obj
 0001:00022650       ??$_Unfancy@PAVProjectileCannonFrag@@@std@@YAPAPAVProjectileCannonFrag@@PAPAV1@@Z 00423650 f i ProjectileCannon.obj
 0001:00022660       ??$_Uninitialized_move@PAPAVProjectileCannonFrag@@PAPAV1@V?$allocator@PAVProjectileCannonFrag@@@std@@@std@@YAPAPAVProjectileCannonFrag@@QAPAV1@0PAPAV1@AAV?$allocator@PAVProjectileCannonFrag@@@0@@Z 00423660 f i ProjectileCannon.obj
 0001:00022720       ??$_Uninitialized_move_al_unchecked@PAVProjectileCannonFrag@@PAV1@V?$allocator@PAVProjectileCannonFrag@@@std@@@std@@YAPAPAVProjectileCannonFrag@@QAPAV1@00AAV?$allocator@PAVProjectileCannonFrag@@@0@U_Really_trivial_ptr_iterator_tag@0@U?$integral_constant@_N$00@0@@Z 00423720 f i ProjectileCannon.obj
 0001:00022740       ??$construct@PAVProjectileCannonFrag@@ABQAV1@@?$_Default_allocator_traits@V?$allocator@PAVProjectileCannonFrag@@@std@@@std@@SAXAAV?$allocator@PAVProjectileCannonFrag@@@1@QAPAVProjectileCannonFrag@@ABQAV3@@Z 00423740 f i ProjectileCannon.obj
 0001:00022780       ??$emplace_back@ABQAVProjectileCannonFrag@@@?$vector@PAVProjectileCannonFrag@@V?$allocator@PAVProjectileCannonFrag@@@std@@@std@@QAE@ABQAVProjectileCannonFrag@@@Z 00423780 f i ProjectileCannon.obj
 0001:000227f0       ??$forward@ABQAVProjectileCannonFrag@@@std@@YAABQAVProjectileCannonFrag@@ABQAV1@@Z 004237f0 f i ProjectileCannon.obj
 0001:00022800       ??$forward@V?$allocator@H@std@@@std@@YA$$QAV?$allocator@H@0@AAV10@@Z 00423800 f i ProjectileCannon.obj
 0001:00022810       ??0?$_Vector_alloc@U?$_Vec_base_types@PAVProjectileCannonFrag@@V?$allocator@PAVProjectileCannonFrag@@@std@@@std@@@std@@QAE@XZ 00423810 f i ProjectileCannon.obj
 0001:00022840       ??0?$_Vector_val@U?$_Simple_types@PAVProjectileCannonFrag@@@std@@@std@@QAE@XZ 00423840 f i ProjectileCannon.obj
 0001:00022880       ??0?$allocator@PAVProjectileCannonFrag@@@std@@QAE@XZ 00423880 f i ProjectileCannon.obj
 0001:000228a0       ??0?$vector@HV?$allocator@H@std@@@std@@QAE@ABV01@@Z 004238a0 f i ProjectileCannon.obj
 0001:000229c0       ??0?$vector@PAVProjectileCannonFrag@@V?$allocator@PAVProjectileCannonFrag@@@std@@@std@@QAE@XZ 004239c0 f i ProjectileCannon.obj
 0001:00022a10       ??1?$vector@PAVProjectileCannonFrag@@V?$allocator@PAVProjectileCannonFrag@@@std@@@std@@QAE@XZ 00423a10 f i ProjectileCannon.obj
 0001:00022a60       ??_GProjectileCannon@@UAEPAXI@Z 00423a60 f i ProjectileCannon.obj
 0001:00022a60       ??_EProjectileCannon@@UAEPAXI@Z 00423a60 f i ProjectileCannon.obj
 0001:00022aa0       ?_Calculate_growth@?$vector@PAVProjectileCannonFrag@@V?$allocator@PAVProjectileCannonFrag@@@std@@@std@@ABEII@Z 00423aa0 f i ProjectileCannon.obj
 0001:00022b10       ?_Change_array@?$vector@PAVProjectileCannonFrag@@V?$allocator@PAVProjectileCannonFrag@@@std@@@std@@AAEXQAPAVProjectileCannonFrag@@II@Z 00423b10 f i ProjectileCannon.obj
 0001:00022bd0       ?_Destroy@?$vector@PAVProjectileCannonFrag@@V?$allocator@PAVProjectileCannonFrag@@@std@@@std@@AAEXPAPAVProjectileCannonFrag@@0@Z 00423bd0 f i ProjectileCannon.obj
 0001:00022c00       ?_Get_data@?$_Vector_alloc@U?$_Vec_base_types@PAVProjectileCannonFrag@@V?$allocator@PAVProjectileCannonFrag@@@std@@@std@@@std@@QAEAAV?$_Vector_val@U?$_Simple_types@PAVProjectileCannonFrag@@@std@@@2@XZ 00423c00 f i ProjectileCannon.obj
 0001:00022c20       ?_Get_data@?$_Vector_alloc@U?$_Vec_base_types@PAVProjectileCannonFrag@@V?$allocator@PAVProjectileCannonFrag@@@std@@@std@@@std@@QBEABV?$_Vector_val@U?$_Simple_types@PAVProjectileCannonFrag@@@std@@@2@XZ 00423c20 f i ProjectileCannon.obj
 0001:00022c40       ?_Get_first@?$_Compressed_pair@V?$allocator@PAVProjectileCannonFrag@@@std@@V?$_Vector_val@U?$_Simple_types@PAVProjectileCannonFrag@@@std@@@2@$00@std@@QAEAAV?$allocator@PAVProjectileCannonFrag@@@2@XZ 00423c40 f i ProjectileCannon.obj
 0001:00022c60       ?_Get_first@?$_Compressed_pair@V?$allocator@PAVProjectileCannonFrag@@@std@@V?$_Vector_val@U?$_Simple_types@PAVProjectileCannonFrag@@@std@@@2@$00@std@@QBEABV?$allocator@PAVProjectileCannonFrag@@@2@XZ 00423c60 f i ProjectileCannon.obj
 0001:00022c80       ?_Get_second@?$_Compressed_pair@V?$allocator@PAVProjectileCannonFrag@@@std@@V?$_Vector_val@U?$_Simple_types@PAVProjectileCannonFrag@@@std@@@2@$00@std@@QAEAAV?$_Vector_val@U?$_Simple_types@PAVProjectileCannonFrag@@@std@@@2@XZ 00423c80 f i ProjectileCannon.obj
 0001:00022ca0       ?_Get_second@?$_Compressed_pair@V?$allocator@PAVProjectileCannonFrag@@@std@@V?$_Vector_val@U?$_Simple_types@PAVProjectileCannonFrag@@@std@@@2@$00@std@@QBEABV?$_Vector_val@U?$_Simple_types@PAVProjectileCannonFrag@@@std@@@2@XZ 00423ca0 f i ProjectileCannon.obj
 0001:00022cc0       ?_Getal@?$_Vector_alloc@U?$_Vec_base_types@PAVProjectileCannonFrag@@V?$allocator@PAVProjectileCannonFrag@@@std@@@std@@@std@@QAEAAV?$allocator@PAVProjectileCannonFrag@@@2@XZ 00423cc0 f i ProjectileCannon.obj
 0001:00022ce0       ?_Getal@?$_Vector_alloc@U?$_Vec_base_types@PAVProjectileCannonFrag@@V?$allocator@PAVProjectileCannonFrag@@@std@@@std@@@std@@QBEABV?$allocator@PAVProjectileCannonFrag@@@2@XZ 00423ce0 f i ProjectileCannon.obj
 0001:00022d00       ?_Has_unused_capacity@?$vector@PAVProjectileCannonFrag@@V?$allocator@PAVProjectileCannonFrag@@@std@@@std@@ABE_NXZ 00423d00 f i ProjectileCannon.obj
 0001:00022d50       ?_Myend@?$_Vector_alloc@U?$_Vec_base_types@PAVProjectileCannonFrag@@V?$allocator@PAVProjectileCannonFrag@@@std@@@std@@@std@@QAEAAPAPAVProjectileCannonFrag@@XZ 00423d50 f i ProjectileCannon.obj
 0001:00022d70       ?_Myend@?$_Vector_alloc@U?$_Vec_base_types@PAVProjectileCannonFrag@@V?$allocator@PAVProjectileCannonFrag@@@std@@@std@@@std@@QBEABQAPAVProjectileCannonFrag@@XZ 00423d70 f i ProjectileCannon.obj
 0001:00022d90       ?_Myfirst@?$_Vector_alloc@U?$_Vec_base_types@PAVProjectileCannonFrag@@V?$allocator@PAVProjectileCannonFrag@@@std@@@std@@@std@@QAEAAPAPAVProjectileCannonFrag@@XZ 00423d90 f i ProjectileCannon.obj
 0001:00022db0       ?_Myfirst@?$_Vector_alloc@U?$_Vec_base_types@PAVProjectileCannonFrag@@V?$allocator@PAVProjectileCannonFrag@@@std@@@std@@@std@@QBEABQAPAVProjectileCannonFrag@@XZ 00423db0 f i ProjectileCannon.obj
 0001:00022dd0       ?_Mylast@?$_Vector_alloc@U?$_Vec_base_types@PAVProjectileCannonFrag@@V?$allocator@PAVProjectileCannonFrag@@@std@@@std@@@std@@QAEAAPAPAVProjectileCannonFrag@@XZ 00423dd0 f i ProjectileCannon.obj
 0001:00022df0       ?_Mylast@?$_Vector_alloc@U?$_Vec_base_types@PAVProjectileCannonFrag@@V?$allocator@PAVProjectileCannonFrag@@@std@@@std@@@std@@QBEABQAPAVProjectileCannonFrag@@XZ 00423df0 f i ProjectileCannon.obj
 0001:00022e10       ?_Orphan_all@?$_Vector_alloc@U?$_Vec_base_types@PAVProjectileCannonFrag@@V?$allocator@PAVProjectileCannonFrag@@@std@@@std@@@std@@QAEXXZ 00423e10 f i ProjectileCannon.obj
 0001:00022e30       ?_Orphan_range@?$vector@PAVProjectileCannonFrag@@V?$allocator@PAVProjectileCannonFrag@@@std@@@std@@ABEXPAPAVProjectileCannonFrag@@0@Z 00423e30 f i ProjectileCannon.obj
 0001:00022e40       ?_Tidy@?$vector@PAVProjectileCannonFrag@@V?$allocator@PAVProjectileCannonFrag@@@std@@@std@@AAEXXZ 00423e40 f i ProjectileCannon.obj
 0001:00022ef0       ?_Umove@?$vector@PAVProjectileCannonFrag@@V?$allocator@PAVProjectileCannonFrag@@@std@@@std@@AAEPAPAVProjectileCannonFrag@@PAPAV3@00@Z 00423ef0 f i ProjectileCannon.obj
 0001:00022f30       ?_Umove_if_noexcept1@?$vector@PAVProjectileCannonFrag@@V?$allocator@PAVProjectileCannonFrag@@@std@@@std@@AAEXPAPAVProjectileCannonFrag@@00U?$integral_constant@_N$00@2@@Z 00423f30 f i ProjectileCannon.obj
 0001:00022f70       ?_Umove_if_noexcept@?$vector@PAVProjectileCannonFrag@@V?$allocator@PAVProjectileCannonFrag@@@std@@@std@@AAEXPAPAVProjectileCannonFrag@@00@Z 00423f70 f i ProjectileCannon.obj
 0001:00022fb0       ?_Xlength@?$vector@PAVProjectileCannonFrag@@V?$allocator@PAVProjectileCannonFrag@@@std@@@std@@CAXXZ 00423fb0 f i ProjectileCannon.obj
 0001:00022fd0       ?allocate@?$allocator@PAVProjectileCannonFrag@@@std@@QAEPAPAVProjectileCannonFrag@@I@Z 00423fd0 f i ProjectileCannon.obj
 0001:00023000       ?capacity@?$vector@PAVProjectileCannonFrag@@V?$allocator@PAVProjectileCannonFrag@@@std@@@std@@QBEIXZ 00424000 f i ProjectileCannon.obj
 0001:00023040       ?checkIfPrevHit@ProjectileCannon@@UAE_NH@Z 00424040 f i ProjectileCannon.obj
 0001:000230b0       ?deallocate@?$allocator@PAVProjectileCannonFrag@@@std@@QAEXQAPAVProjectileCannonFrag@@I@Z 004240b0 f i ProjectileCannon.obj
 0001:000230e0       ?destroySelf@ProjectileCannon@@UAEXXZ 004240e0 f i ProjectileCannon.obj
 0001:00023100       ?fragment@ProjectileCannon@@QAEXXZ 00424100 f i ProjectileCannon.obj
 0001:00023320       ?getDamage@ProjectileCannon@@UAEHXZ 00424320 f i ProjectileCannon.obj
 0001:00023340       ?getRadius@ProjectileCannon@@UAEHXZ 00424340 f i ProjectileCannon.obj
 0001:00023360       ?getSpeed@ProjectileCannon@@UAEHXZ 00424360 f i ProjectileCannon.obj
 0001:00023380       ?getSpeedX@ProjectileCannon@@UAEHXZ 00424380 f i ProjectileCannon.obj
 0001:000233a0       ?getSpeedY@ProjectileCannon@@UAEHXZ 004243a0 f i ProjectileCannon.obj
 0001:000233c0       ?hit@ProjectileCannon@@UAEXHH@Z 004243c0 f i ProjectileCannon.obj
 0001:00023420       ?max_size@?$_Default_allocator_traits@V?$allocator@PAVProjectileCannonFrag@@@std@@@std@@SAIABV?$allocator@PAVProjectileCannonFrag@@@2@@Z 00424420 f i ProjectileCannon.obj
 0001:00023430       ?max_size@?$vector@PAVProjectileCannonFrag@@V?$allocator@PAVProjectileCannonFrag@@@std@@@std@@QBEIXZ 00424430 f i ProjectileCannon.obj
 0001:00023480       ?push_back@?$vector@PAVProjectileCannonFrag@@V?$allocator@PAVProjectileCannonFrag@@@std@@@std@@QAEXABQAVProjectileCannonFrag@@@Z 00424480 f i ProjectileCannon.obj
 0001:000234a0       ?select_on_container_copy_construction@?$_Default_allocator_traits@V?$allocator@H@std@@@std@@SA?AV?$allocator@H@2@ABV32@@Z 004244a0 f i ProjectileCannon.obj
 0001:000234b0       ?size@?$vector@PAVProjectileCannonFrag@@V?$allocator@PAVProjectileCannonFrag@@@std@@@std@@QBEIXZ 004244b0 f i ProjectileCannon.obj
 0001:000234f0       ??0ProjectileCannonFrag@@QAE@PAVGame@@PAVGameMain@@HHHV?$vector@HV?$allocator@H@std@@@std@@@Z 004244f0 f   ProjectileCannonFrag.obj
 0001:00023650       ??1ProjectileCannonFrag@@UAE@XZ 00424650 f   ProjectileCannonFrag.obj
 0001:00023680       ?Draw@ProjectileCannonFrag@@UAEXXZ 00424680 f   ProjectileCannonFrag.obj
 0001:00023760       ?hit@ProjectileCannonFrag@@UAEXHH@Z 00424760 f   ProjectileCannonFrag.obj
 0001:00023780       ?updateSubClass@ProjectileCannonFrag@@UAEXXZ 00424780 f   ProjectileCannonFrag.obj
 0001:000238b0       ??_GProjectileCannonFrag@@UAEPAXI@Z 004248b0 f i ProjectileCannonFrag.obj
 0001:000238b0       ??_EProjectileCannonFrag@@UAEPAXI@Z 004248b0 f i ProjectileCannonFrag.obj
 0001:000238f0       ?destroySelf@ProjectileCannonFrag@@UAEXXZ 004248f0 f i ProjectileCannonFrag.obj
 0001:00023910       ?getDamage@ProjectileCannonFrag@@UAEHXZ 00424910 f i ProjectileCannonFrag.obj
 0001:00023930       ?getRadius@ProjectileCannonFrag@@UAEHXZ 00424930 f i ProjectileCannonFrag.obj
 0001:00023950       ??0ProjectileSniper@@QAE@PAVGame@@PAVGameMain@@PAVEnemy@@HHHHH@Z 00424950 f   ProjectileSniper.obj
 0001:00023a90       ??1ProjectileSniper@@UAE@XZ 00424a90 f   ProjectileSniper.obj
 0001:00023ac0       ?Draw@ProjectileSniper@@UAEXXZ 00424ac0 f   ProjectileSniper.obj
 0001:00023c30       ??_EProjectileSniper@@UAEPAXI@Z 00424c30 f i ProjectileSniper.obj
 0001:00023c30       ??_GProjectileSniper@@UAEPAXI@Z 00424c30 f i ProjectileSniper.obj
 0001:00023c70       ?getDamage@ProjectileSniper@@UAEHXZ 00424c70 f i ProjectileSniper.obj
 0001:00023c90       ?hit@ProjectileSniper@@UAEXHH@Z 00424c90 f i ProjectileSniper.obj
 0001:00023cf0       ?SetupBackgroundBuffer@SimpleDemo@@UAEXXZ 00424cf0 f   SimpleDemo.obj
 0001:00023e30       ?InitialiseObjects@SimpleDemo@@UAEHXZ 00424e30 f   SimpleDemo.obj
 0001:00023ee0       ?UnDrawStrings@SimpleDemo@@UAEXXZ 00424ee0 f   SimpleDemo.obj
 0001:00023f10       ?DrawStringsUnderneath@SimpleDemo@@UAEXXZ 00424f10 f   SimpleDemo.obj
 0001:00023f90       ?DrawStringsOnTop@SimpleDemo@@UAEXXZ 00424f90 f   SimpleDemo.obj
 0001:00024020       ?GameAction@SimpleDemo@@UAEXXZ 00425020 f   SimpleDemo.obj
 0001:00024060       ?MouseDown@SimpleDemo@@UAEXHHH@Z 00425060 f   SimpleDemo.obj
 0001:00024090       ?KeyDown@SimpleDemo@@UAEXH@Z 00425090 f   SimpleDemo.obj
 0001:000241b0       ??0SimpleShape@@QAE@PAVSimpleDemo@@@Z 004251b0 f i SimpleDemo.obj
 0001:000242f0       ??1SimpleShape@@UAE@XZ     004252f0 f i SimpleDemo.obj
 0001:00024310       ??_GSimpleShape@@UAEPAXI@Z 00425310 f i SimpleDemo.obj
 0001:00024310       ??_ESimpleShape@@UAEPAXI@Z 00425310 f i SimpleDemo.obj
 0001:00024350       ?DoUpdate@SimpleShape@@UAEXH@Z 00425350 f i SimpleDemo.obj
 0001:000247a0       ?Draw@SimpleShape@@UAEXXZ  004257a0 f i SimpleDemo.obj
 0001:00024850       ?GetScreenHeight@BaseEngine@@QBEHXZ 00425850 f i SimpleDemo.obj
 0001:00024870       ?SetBackgroundPixel@BaseEngine@@QAEXHHI@Z 00425870 f i SimpleDemo.obj
 0001:00024950       ?SetPixel@BaseEngine@@QAEXHHIPAUSDL_Surface@@@Z 00425950 f i SimpleDemo.obj
 0001:00024a40       ?UpdateTileAt@TileManager@@QAEXPAVBaseEngine@@HHHHH@Z 00425a40 f   TileManager.obj
 0001:00024ab0       ?DrawAllTilesAt@TileManager@@QBEXPAVBaseEngine@@PAUSDL_Surface@@HHHHHH@Z 00425ab0 f   TileManager.obj
 0001:00024b40       ?DrawTileAt@TileManager@@UBEXPAVBaseEngine@@PAUSDL_Surface@@HHHH@Z 00425b40 f   TileManager.obj
 0001:00024c30       ??0BouncingBall@@QAE@PAVBouncingBallMain@@HHHHPADHH@Z 00425c30 f   BouncingBall.obj
 0001:00024d50       ??1BouncingBall@@UAE@XZ    00425d50 f   BouncingBall.obj
 0001:00024d70       ?Draw@BouncingBall@@UAEXXZ 00425d70 f   BouncingBall.obj
 0001:00025000       ?DoUpdate@BouncingBall@@UAEXH@Z 00426000 f   BouncingBall.obj
 0001:00025020       ??0BouncingBall1@@QAE@PAVBouncingBallMain@@HHHHPADHHPAVTileManager@@@Z 00426020 f   BouncingBall.obj
 0001:000250b0       ?SetMovement@BouncingBall1@@QAEXHHHHHHH@Z 004260b0 f   BouncingBall.obj
 0001:00025120       ?DoUpdate@BouncingBall1@@UAEXH@Z 00426120 f   BouncingBall.obj
 0001:00025240       ??0BouncingBall2@@QAE@PAVBouncingBallMain@@HHHHPADHH@Z 00426240 f   BouncingBall.obj
 0001:000252c0       ?SetPosition@BouncingBall2@@QAEXNN@Z 004262c0 f   BouncingBall.obj
 0001:000252f0       ?SetSpeed@BouncingBall2@@QAEXNN@Z 004262f0 f   BouncingBall.obj
 0001:00025320       ?DoUpdate@BouncingBall2@@UAEXH@Z 00426320 f   BouncingBall.obj
 0001:000258f0       ??0MovementPosition@@QAE@XZ 004268f0 f i BouncingBall.obj
 0001:00025970       ??1BouncingBall1@@UAE@XZ   00426970 f i BouncingBall.obj
 0001:00025990       ??1BouncingBall2@@UAE@XZ   00426990 f i BouncingBall.obj
 0001:000259b0       ??_GBouncingBall1@@UAEPAXI@Z 004269b0 f i BouncingBall.obj
 0001:000259b0       ??_EBouncingBall1@@UAEPAXI@Z 004269b0 f i BouncingBall.obj
 0001:000259f0       ??_EBouncingBall2@@UAEPAXI@Z 004269f0 f i BouncingBall.obj
 0001:000259f0       ??_GBouncingBall2@@UAEPAXI@Z 004269f0 f i BouncingBall.obj
 0001:00025a30       ??_GBouncingBall@@UAEPAXI@Z 00426a30 f i BouncingBall.obj
 0001:00025a30       ??_EBouncingBall@@UAEPAXI@Z 00426a30 f i BouncingBall.obj
 0001:00025a70       ?Calculate@MovementPosition@@QAEXH@Z 00426a70 f i BouncingBall.obj
 0001:00025b60       ?GetTileXForPositionOnScreen@TileManager@@QBEHH@Z 00426b60 f i BouncingBall.obj
 0001:00025b90       ?GetTileYForPositionOnScreen@TileManager@@QBEHH@Z 00426b90 f i BouncingBall.obj
 0001:00025bc0       ?GetX@MovementPosition@@QBEHXZ 00426bc0 f i BouncingBall.obj
 0001:00025be0       ?GetY@MovementPosition@@QBEHXZ 00426be0 f i BouncingBall.obj
 0001:00025c00       ?HasMovementFinished@MovementPosition@@QBE_NH@Z 00426c00 f i BouncingBall.obj
 0001:00025c40       ?IsValidTilePosition@TileManager@@QBE_NHH@Z 00426c40 f i BouncingBall.obj
 0001:00025cd0       ?Reverse@MovementPosition@@QAEXXZ 00426cd0 f i BouncingBall.obj
 0001:00025d50       ?Setup@MovementPosition@@QAEXHHHHHH@Z 00426d50 f i BouncingBall.obj
 0001:00025dc0       ?SetupBackgroundBuffer@BouncingBallMain@@UAEXXZ 00426dc0 f   BouncingBallMain.obj
 0001:000264e0       ?InitialiseObjects@BouncingBallMain@@UAEHXZ 004274e0 f   BouncingBallMain.obj
 0001:00026790       ?DrawStrings@BouncingBallMain@@UAEXXZ 00427790 f   BouncingBallMain.obj
 0001:000267d0       ?MouseDown@BouncingBallMain@@UAEXHHH@Z 004277d0 f   BouncingBallMain.obj
 0001:00026810       ?KeyDown@BouncingBallMain@@UAEXH@Z 00427810 f   BouncingBallMain.obj
 0001:00026ae0       ??0ImageData@@QAE@XZ       00427ae0 f i BouncingBallMain.obj
 0001:00026b20       ??1ImageData@@QAE@XZ       00427b20 f i BouncingBallMain.obj
 0001:00026b60       ?DrawBackgroundLine@BaseEngine@@QAEXHHHHI@Z 00427b60 f i BouncingBallMain.obj
 0001:00026bd0       ?DrawBackgroundPolygon@BaseEngine@@QAEXNNNNNNNNNNNNNNI@Z 00427bd0 f i BouncingBallMain.obj
 0001:00026cd0       ?DrawBackgroundPolygon@BaseEngine@@QAEXNNNNNNNNNNNNNNNNI@Z 00427cd0 f i BouncingBallMain.obj
 0001:00026e10       ?DrawBackgroundVerticalSidedRegion@BaseEngine@@QAEXNNNNNNI@Z 00427e10 f i BouncingBallMain.obj
 0001:00026ea0       ?GetHeight@ImageData@@QBEHXZ 00427ea0 f i BouncingBallMain.obj
 0001:00026ec0       ?GetWidth@ImageData@@QBEHXZ 00427ec0 f i BouncingBallMain.obj
 0001:00026ee0       ??0Demo1Main@@QAE@XZ       00427ee0 f   Demo1Main.obj
 0001:00026f10       ??1Demo1Main@@UAE@XZ       00427f10 f   Demo1Main.obj
 0001:00026f30       ?SetupBackgroundBuffer@Demo1Main@@UAEXXZ 00427f30 f   Demo1Main.obj
 0001:00026f70       ??_EDemo1Main@@UAEPAXI@Z   00427f70 f i Demo1Main.obj
 0001:00026f70       ??_GDemo1Main@@UAEPAXI@Z   00427f70 f i Demo1Main.obj
 0001:00026fb0       ??0Demo2Main@@QAE@XZ       00427fb0 f   Demo2Main.obj
 0001:00027020       ??1Demo2Main@@UAE@XZ       00428020 f   Demo2Main.obj
 0001:00027050       ?SetupBackgroundBuffer@Demo2Main@@UAEXXZ 00428050 f   Demo2Main.obj
 0001:00027100       ?InitialiseObjects@Demo2Main@@UAEHXZ 00428100 f   Demo2Main.obj
 0001:000271d0       ?DrawStrings@Demo2Main@@UAEXXZ 004281d0 f   Demo2Main.obj
 0001:00027210       ?GameAction@Demo2Main@@UAEXXZ 00428210 f   Demo2Main.obj
 0001:00027250       ?MouseDown@Demo2Main@@UAEXHHH@Z 00428250 f   Demo2Main.obj
 0001:00027260       ?KeyDown@Demo2Main@@UAEXH@Z 00428260 f   Demo2Main.obj
 0001:00027340       ??_GDemo2Main@@UAEPAXI@Z   00428340 f i Demo2Main.obj
 0001:00027340       ??_EDemo2Main@@UAEPAXI@Z   00428340 f i Demo2Main.obj
 0001:00027380       ??0Demo2Object@@QAE@PAVDemo2Main@@@Z 00428380 f   Demo2Object.obj
 0001:00027490       ??1Demo2Object@@UAE@XZ     00428490 f   Demo2Object.obj
 0001:000274b0       ?Draw@Demo2Object@@UAEXXZ  004284b0 f   Demo2Object.obj
 0001:00027510       ?DoUpdate@Demo2Object@@UAEXH@Z 00428510 f   Demo2Object.obj
 0001:00027680       ??_GDemo2Object@@UAEPAXI@Z 00428680 f i Demo2Object.obj
 0001:00027680       ??_EDemo2Object@@UAEPAXI@Z 00428680 f i Demo2Object.obj
 0001:000276c0       ??0Demo2TileManager@@QAE@XZ 004286c0 f   Demo2TileManager.obj
 0001:000276f0       ??1Demo2TileManager@@QAE@XZ 004286f0 f   Demo2TileManager.obj
 0001:00027710       ?DrawTileAt@Demo2TileManager@@UAEXPAVBaseEngine@@PAUSDL_Surface@@HHHH@Z 00428710 f   Demo2TileManager.obj
 0001:000277a0       ??0Demo3Main@@QAE@XZ       004287a0 f   Demo3Main.obj
 0001:00027810       ??1Demo3Main@@UAE@XZ       00428810 f   Demo3Main.obj
 0001:00027840       ?SetupBackgroundBuffer@Demo3Main@@UAEXXZ 00428840 f   Demo3Main.obj
 0001:000279c0       ?InitialiseObjects@Demo3Main@@UAEHXZ 004289c0 f   Demo3Main.obj
 0001:00027bc0       ?DrawStrings@Demo3Main@@UAEXXZ 00428bc0 f   Demo3Main.obj
 0001:00027c00       ?GameAction@Demo3Main@@UAEXXZ 00428c00 f   Demo3Main.obj
 0001:00027c40       ?MouseDown@Demo3Main@@UAEXHHH@Z 00428c40 f   Demo3Main.obj
 0001:00027c50       ?KeyDown@Demo3Main@@UAEXH@Z 00428c50 f   Demo3Main.obj
 0001:00027db0       ??_GDemo3Main@@UAEPAXI@Z   00428db0 f i Demo3Main.obj
 0001:00027db0       ??_EDemo3Main@@UAEPAXI@Z   00428db0 f i Demo3Main.obj
 0001:00027df0       ??0Demo3Object@@QAE@PAVDemo3Main@@HH@Z 00428df0 f   Demo3Object.obj
 0001:00027ef0       ??1Demo3Object@@UAE@XZ     00428ef0 f   Demo3Object.obj
 0001:00027f10       ?Draw@Demo3Object@@UAEXXZ  00428f10 f   Demo3Object.obj
 0001:00027f80       ?DoUpdate@Demo3Object@@UAEXH@Z 00428f80 f   Demo3Object.obj
 0001:00028270       ??_GDemo3Object@@UAEPAXI@Z 00429270 f i Demo3Object.obj
 0001:00028270       ??_EDemo3Object@@UAEPAXI@Z 00429270 f i Demo3Object.obj
 0001:000282b0       ?GetTileManager@Demo3Main@@QAEAAVDemo3TileManager@@XZ 004292b0 f i Demo3Object.obj
 0001:000282d0       ?GetXDiffForDirection@Demo3Object@@QAEHH@Z 004292d0 f i Demo3Object.obj
 0001:00028340       ?GetYDiffForDirection@Demo3Object@@QAEHH@Z 00429340 f i Demo3Object.obj
 0001:000283b0       ??0Demo3ObjectFinished@@QAE@PAVDemo3Main@@HH@Z 004293b0 f   Demo3ObjectFinished.obj
 0001:000284b0       ??1Demo3ObjectFinished@@UAE@XZ 004294b0 f   Demo3ObjectFinished.obj
 0001:000284d0       ?Draw@Demo3ObjectFinished@@UAEXXZ 004294d0 f   Demo3ObjectFinished.obj
 0001:00028580       ?DoUpdate@Demo3ObjectFinished@@UAEXH@Z 00429580 f   Demo3ObjectFinished.obj
 0001:000289b0       ??_EDemo3ObjectFinished@@UAEPAXI@Z 004299b0 f i Demo3ObjectFinished.obj
 0001:000289b0       ??_GDemo3ObjectFinished@@UAEPAXI@Z 004299b0 f i Demo3ObjectFinished.obj
 0001:000289f0       ?GetXDiffForDirection@Demo3ObjectFinished@@QAEHH@Z 004299f0 f i Demo3ObjectFinished.obj
 0001:00028a60       ?GetYDiffForDirection@Demo3ObjectFinished@@QAEHH@Z 00429a60 f i Demo3ObjectFinished.obj
 0001:00028ad0       ??0Demo3TileManager@@QAE@XZ 00429ad0 f   Demo3TileManager.obj
 0001:00028b00       ??1Demo3TileManager@@QAE@XZ 00429b00 f   Demo3TileManager.obj
 0001:00028b20       ?DrawTileAt@Demo3TileManager@@UBEXPAVBaseEngine@@PAUSDL_Surface@@HHHH@Z 00429b20 f   Demo3TileManager.obj
 0001:00028d20       ??0Demo4Main@@QAE@XZ       00429d20 f   Demo4Main.obj
 0001:00028da0       ??1Demo4Main@@UAE@XZ       00429da0 f   Demo4Main.obj
 0001:00028dd0       ?SetupBackgroundBuffer@Demo4Main@@UAEXXZ 00429dd0 f   Demo4Main.obj
 0001:00028fc0       ?InitialiseObjects@Demo4Main@@UAEHXZ 00429fc0 f   Demo4Main.obj
 0001:000291c0       ?DrawStrings@Demo4Main@@UAEXXZ 0042a1c0 f   Demo4Main.obj
 0001:00029290       ?GameAction@Demo4Main@@UAEXXZ 0042a290 f   Demo4Main.obj
 0001:000292f0       ?MouseDown@Demo4Main@@UAEXHHH@Z 0042a2f0 f   Demo4Main.obj
 0001:00029300       ?KeyDown@Demo4Main@@UAEXH@Z 0042a300 f   Demo4Main.obj
 0001:00029400       ?UndrawObjects@Demo4Main@@UAEXXZ 0042a400 f   Demo4Main.obj
 0001:00029420       ?DrawObjects@Demo4Main@@UAEXXZ 0042a420 f   Demo4Main.obj
 0001:00029610       ??_EDemo4Main@@UAEPAXI@Z   0042a610 f i Demo4Main.obj
 0001:00029610       ??_GDemo4Main@@UAEPAXI@Z   0042a610 f i Demo4Main.obj
 0001:00029650       ?IncreaseTimeOffset@BaseEngine@@QAEXH@Z 0042a650 f i Demo4Main.obj
 0001:00029680       ??0Demo4Object@@QAE@PAVDemo4Main@@HH@Z 0042a680 f   Demo4Object.obj
 0001:00029780       ??1Demo4Object@@UAE@XZ     0042a780 f   Demo4Object.obj
 0001:000297a0       ?Draw@Demo4Object@@UAEXXZ  0042a7a0 f   Demo4Object.obj
 0001:00029860       ?DoUpdate@Demo4Object@@UAEXH@Z 0042a860 f   Demo4Object.obj
 0001:00029ea0       ??_GDemo4Object@@UAEPAXI@Z 0042aea0 f i Demo4Object.obj
 0001:00029ea0       ??_EDemo4Object@@UAEPAXI@Z 0042aea0 f i Demo4Object.obj
 0001:00029ee0       ?GetTileManager@Demo4Main@@QAEAAVDemo4TileManager@@XZ 0042aee0 f i Demo4Object.obj
 0001:00029f00       ?GetXDiffForDirection@Demo4Object@@QAEHH@Z 0042af00 f i Demo4Object.obj
 0001:00029f70       ?GetYDiffForDirection@Demo4Object@@QAEHH@Z 0042af70 f i Demo4Object.obj
 0001:00029fe0       ??0Demo4TileManager@@QAE@XZ 0042afe0 f   Demo4TileManager.obj
 0001:0002a010       ??1Demo4TileManager@@QAE@XZ 0042b010 f   Demo4TileManager.obj
 0001:0002a030       ?DrawTileAt@Demo4TileManager@@UBEXPAVBaseEngine@@PAUSDL_Surface@@HHHH@Z 0042b030 f   Demo4TileManager.obj
 0001:0002a230       ??0TurretBasic@@QAE@PAVGame@@PAVGameMain@@H@Z 0042b230 f   TurretBasic.obj
 0001:0002a350       ??1TurretBasic@@UAE@XZ     0042b350 f   TurretBasic.obj
 0001:0002a370       ?Draw@TurretBasic@@UAEXXZ  0042b370 f   TurretBasic.obj
 0001:0002a550       ?DoUpdate@TurretBasic@@UAEXH@Z 0042b550 f   TurretBasic.obj
 0001:0002a620       ?fire@TurretBasic@@UAEXPAVEnemy@@@Z 0042b620 f   TurretBasic.obj
 0001:0002a710       ?angleToTarget@TurretBasic@@QAEMHHHH@Z 0042b710 f   TurretBasic.obj
 0001:0002a7b0       ?calcRotationalMatrix@TurretBasic@@QAEXM@Z 0042b7b0 f   TurretBasic.obj
 0001:0002a860       ?initialiseRelativeCoords@TurretBasic@@UAEXXZ 0042b860 f   TurretBasic.obj
 0001:0002a930       ?rotateCoords@TurretBasic@@QAEXPAHH@Z 0042b930 f   TurretBasic.obj
 0001:0002ac30       ??_GTurretBasic@@UAEPAXI@Z 0042bc30 f i TurretBasic.obj
 0001:0002ac30       ??_ETurretBasic@@UAEPAXI@Z 0042bc30 f i TurretBasic.obj
 0001:0002ac70       ?RedrawWholeScreen@DisplayableObject@@QAEXXZ 0042bc70 f i TurretBasic.obj
 0001:0002ac90       ?cos@@YAMM@Z               0042bc90 f i TurretBasic.obj
 0001:0002acb0       ?getRadius@TurretBasic@@UAE_NXZ 0042bcb0 f i TurretBasic.obj
 0001:0002acd0       ?getRange@TurretBasic@@UAEHXZ 0042bcd0 f i TurretBasic.obj
 0001:0002acf0       ?round@@YAMM@Z             0042bcf0 f i TurretBasic.obj
 0001:0002ad10       ?setShowRadius@TurretBasic@@UAEX_N@Z 0042bd10 f i TurretBasic.obj
 0001:0002ad40       ?sin@@YAMM@Z               0042bd40 f i TurretBasic.obj
 0001:0002ad60       _cosf                      0042bd60 f i TurretBasic.obj
 0001:0002ad90       _sinf                      0042bd90 f i TurretBasic.obj
 0001:0002adc0       ??0TurretCannon@@QAE@PAVGame@@PAVGameMain@@H@Z 0042bdc0 f   TurretCannon.obj
 0001:0002ae70       ??1TurretCannon@@UAE@XZ    0042be70 f   TurretCannon.obj
 0001:0002ae90       ?Draw@TurretCannon@@UAEXXZ 0042be90 f   TurretCannon.obj
 0001:0002b360       ?DoUpdate@TurretCannon@@UAEXH@Z 0042c360 f   TurretCannon.obj
 0001:0002b460       ?fire@TurretCannon@@UAEXPAVEnemy@@@Z 0042c460 f   TurretCannon.obj
 0001:0002b570       ?initialiseRelativeCoords@TurretCannon@@UAEXXZ 0042c570 f   TurretCannon.obj
 0001:0002b990       ??_ETurretCannon@@UAEPAXI@Z 0042c990 f i TurretCannon.obj
 0001:0002b990       ??_GTurretCannon@@UAEPAXI@Z 0042c990 f i TurretCannon.obj
 0001:0002b9d0       ?getRadius@TurretCannon@@UAE_NXZ 0042c9d0 f i TurretCannon.obj
 0001:0002b9f0       ?getRange@TurretCannon@@UAEHXZ 0042c9f0 f i TurretCannon.obj
 0001:0002ba10       ?setShowRadius@TurretCannon@@UAEX_N@Z 0042ca10 f i TurretCannon.obj
 0001:0002ba40       ??0TurretSniper@@QAE@PAVGame@@PAVGameMain@@H@Z 0042ca40 f   TurretSniper.obj
 0001:0002baf0       ??1TurretSniper@@UAE@XZ    0042caf0 f   TurretSniper.obj
 0001:0002bb10       ?Draw@TurretSniper@@UAEXXZ 0042cb10 f   TurretSniper.obj
 0001:0002bef0       ?DoUpdate@TurretSniper@@UAEXH@Z 0042cef0 f   TurretSniper.obj
 0001:0002bff0       ?fire@TurretSniper@@UAEXPAVEnemy@@@Z 0042cff0 f   TurretSniper.obj
 0001:0002c0f0       ?initialiseRelativeCoords@TurretSniper@@UAEXXZ 0042d0f0 f   TurretSniper.obj
 0001:0002c510       ??_GTurretSniper@@UAEPAXI@Z 0042d510 f i TurretSniper.obj
 0001:0002c510       ??_ETurretSniper@@UAEPAXI@Z 0042d510 f i TurretSniper.obj
 0001:0002c550       ?getRadius@TurretSniper@@UAE_NXZ 0042d550 f i TurretSniper.obj
 0001:0002c570       ?getRange@TurretSniper@@UAEHXZ 0042d570 f i TurretSniper.obj
 0001:0002c590       ?setShowRadius@TurretSniper@@UAEX_N@Z 0042d590 f i TurretSniper.obj
 0001:0002c5c0       ??0WaveManager@@QAE@PAVGame@@PAVGameMain@@@Z 0042d5c0 f   WaveManager.obj
 0001:0002c6a0       ??1WaveManager@@QAE@XZ     0042d6a0 f   WaveManager.obj
 0001:0002c6b0       ?update@WaveManager@@QAEXH@Z 0042d6b0 f   WaveManager.obj
 0001:0002c6d0       ?initialise@WaveManager@@QAEXVMapTileManager@@@Z 0042d6d0 f   WaveManager.obj
 0001:0002c800       ?setRunningIfReady@WaveManager@@QAEX_N@Z 0042d800 f   WaveManager.obj
 0001:0002c890       ?manageWaves@WaveManager@@QAEXH@Z 0042d890 f   WaveManager.obj
 0001:0002ca60       ?initNewEnemies@WaveManager@@QAEXHQAM@Z 0042da60 f   WaveManager.obj
 0001:0002cc00       ?setupNextWave@WaveManager@@QAEXXZ 0042dc00 f   WaveManager.obj
 0001:0002d1a0       ?isWaveOver@WaveManager@@QAE_NXZ 0042e1a0 f   WaveManager.obj
 0001:0002d530       ??$pow@HNX@@YANHN@Z        0042e530 f i WaveManager.obj
 0001:0002d560       ?GetMapHeight@MapTileManager@@QBEHXZ 0042e560 f i WaveManager.obj
 0001:0002d580       ?GetMapWidth@MapTileManager@@QBEHXZ 0042e580 f i WaveManager.obj
 0001:0002d5a0       ?getHealth@Enemy@@QAEHXZ   0042e5a0 f i WaveManager.obj
 0001:0002d5c0       ?getHighestLevelEnemy@WaveManager@@QAEHH_N@Z 0042e5c0 f i WaveManager.obj
 0001:0002d6f0       ?getNextWaveNumber@WaveManager@@QAEHXZ 0042e6f0 f i WaveManager.obj
 0001:0002d710       ?getWaveSpawned@Enemy@@QAEHXZ 0042e710 f i WaveManager.obj
 0001:0002d730       ?setSpawned@Enemy@@QAEX_NH@Z 0042e730 f i WaveManager.obj
 0001:0002d780       ?setXPosition@Enemy@@QAEXH@Z 0042e780 f i WaveManager.obj
 0001:0002d7b0       ?setYPosition@Enemy@@QAEXH@Z 0042e7b0 f i WaveManager.obj
 0001:0002d7da       _SDL_GetError              0042e7da f   SDL2:SDL2.dll
 0001:0002d7e0       _SDL_CreateRGBSurface      0042e7e0 f   SDL2:SDL2.dll
 0001:0002d7e6       _SDL_FreeSurface           0042e7e6 f   SDL2:SDL2.dll
 0001:0002d7ec       _SDL_LockSurface           0042e7ec f   SDL2:SDL2.dll
 0001:0002d7f2       _SDL_UnlockSurface         0042e7f2 f   SDL2:SDL2.dll
 0001:0002d7f8       _SDL_FillRect              0042e7f8 f   SDL2:SDL2.dll
 0001:0002d7fe       _SDL_UpperBlit             0042e7fe f   SDL2:SDL2.dll
 0001:0002d804       _SDL_CreateWindow          0042e804 f   SDL2:SDL2.dll
 0001:0002d80a       _SDL_PollEvent             0042e80a f   SDL2:SDL2.dll
 0001:0002d810       _SDL_CreateRenderer        0042e810 f   SDL2:SDL2.dll
 0001:0002d816       _SDL_CreateTexture         0042e816 f   SDL2:SDL2.dll
 0001:0002d81c       _SDL_UpdateTexture         0042e81c f   SDL2:SDL2.dll
 0001:0002d822       _SDL_RenderCopy            0042e822 f   SDL2:SDL2.dll
 0001:0002d828       _SDL_RenderPresent         0042e828 f   SDL2:SDL2.dll
 0001:0002d82e       _SDL_GetTicks              0042e82e f   SDL2:SDL2.dll
 0001:0002d834       _SDL_Delay                 0042e834 f   SDL2:SDL2.dll
 0001:0002d83a       _SDL_Init                  0042e83a f   SDL2:SDL2.dll
 0001:0002d840       _SDL_Quit                  0042e840 f   SDL2:SDL2.dll
 0001:0002d846       _IMG_Load                  0042e846 f   SDL2_image:SDL2_image.dll
 0001:0002d84c       _TTF_Init                  0042e84c f   SDL2_ttf:SDL2_ttf.dll
 0001:0002d852       _TTF_RenderText_Solid      0042e852 f   SDL2_ttf:SDL2_ttf.dll
 0001:0002d858       _TTF_Quit                  0042e858 f   SDL2_ttf:SDL2_ttf.dll
 0001:0002d85e       _TTF_OpenFont              0042e85e f   SDL2_ttf:SDL2_ttf.dll
 0001:0002d864       _TTF_CloseFont             0042e864 f   SDL2_ttf:SDL2_ttf.dll
 0001:0002d86a       ?_Xlength_error@std@@YAXPBD@Z 0042e86a f   msvcprt:MSVCP140.dll
 0001:0002d870       ??0_Lockit@std@@QAE@H@Z    0042e870 f   msvcprt:MSVCP140.dll
 0001:0002d876       ??1_Lockit@std@@QAE@XZ     0042e876 f   msvcprt:MSVCP140.dll
 0001:0002d87c       ?uncaught_exception@std@@YA_NXZ 0042e87c f   msvcprt:MSVCP140.dll
 0001:0002d882       ?_Xout_of_range@std@@YAXPBD@Z 0042e882 f   msvcprt:MSVCP140.dll
 0001:0002d888       ??0_Fac_node@std@@QAE@PAU01@PAV_Facet_base@1@@Z 0042e888 f i msvcprt:locale0_implib.obj
 0001:0002d8a1       ??1_Fac_node@std@@QAE@XZ   0042e8a1 f i msvcprt:locale0_implib.obj
 0001:0002d917       ??1_Fac_tidy_reg_t@std@@QAE@XZ 0042e917 f i msvcprt:locale0_implib.obj
 0001:0002d947       ??_G_Fac_node@std@@QAEPAXI@Z 0042e947 f i msvcprt:locale0_implib.obj
 0001:0002d971       ?_Facet_Register@std@@YAXPAV_Facet_base@1@@Z 0042e971 f   msvcprt:locale0_implib.obj
 0001:0002d9a8       ??Bid@locale@std@@QAEIXZ   0042e9a8 f   msvcprt:MSVCP140.dll
 0001:0002d9ae       ?_Getgloballocale@locale@std@@CAPAV_Locimp@12@XZ 0042e9ae f   msvcprt:MSVCP140.dll
 0001:0002d9b4       ?always_noconv@codecvt_base@std@@QBE_NXZ 0042e9b4 f   msvcprt:MSVCP140.dll
 0001:0002d9ba       ?is@?$ctype@D@std@@QBE_NFD@Z 0042e9ba f   msvcprt:MSVCP140.dll
 0001:0002d9c0       ?_Getcat@?$ctype@D@std@@SAIPAPBVfacet@locale@2@PBV42@@Z 0042e9c0 f   msvcprt:MSVCP140.dll
 0001:0002d9c6       ?in@?$codecvt@DDU_Mbstatet@@@std@@QBEHAAU_Mbstatet@@PBD1AAPBDPAD3AAPAD@Z 0042e9c6 f   msvcprt:MSVCP140.dll
 0001:0002d9cc       ?out@?$codecvt@DDU_Mbstatet@@@std@@QBEHAAU_Mbstatet@@PBD1AAPBDPAD3AAPAD@Z 0042e9cc f   msvcprt:MSVCP140.dll
 0001:0002d9d2       ?unshift@?$codecvt@DDU_Mbstatet@@@std@@QBEHAAU_Mbstatet@@PAD1AAPAD@Z 0042e9d2 f   msvcprt:MSVCP140.dll
 0001:0002d9d8       ?_Getcat@?$codecvt@DDU_Mbstatet@@@std@@SAIPAPBVfacet@locale@2@PBV42@@Z 0042e9d8 f   msvcprt:MSVCP140.dll
 0001:0002d9de       ??Bios_base@std@@QBE_NXZ   0042e9de f   msvcprt:MSVCP140.dll
 0001:0002d9e4       ?good@ios_base@std@@QBE_NXZ 0042e9e4 f   msvcprt:MSVCP140.dll
 0001:0002d9ea       ?flags@ios_base@std@@QBEHXZ 0042e9ea f   msvcprt:MSVCP140.dll
 0001:0002d9f0       ?width@ios_base@std@@QBE_JXZ 0042e9f0 f   msvcprt:MSVCP140.dll
 0001:0002d9f6       ?width@ios_base@std@@QAE_J_J@Z 0042e9f6 f   msvcprt:MSVCP140.dll
 0001:0002d9fc       ?getloc@ios_base@std@@QBE?AVlocale@2@XZ 0042e9fc f   msvcprt:MSVCP140.dll
 0001:0002da02       ??0?$basic_streambuf@DU?$char_traits@D@std@@@std@@IAE@XZ 0042ea02 f   msvcprt:MSVCP140.dll
 0001:0002da08       ??1?$basic_streambuf@DU?$char_traits@D@std@@@std@@UAE@XZ 0042ea08 f   msvcprt:MSVCP140.dll
 0001:0002da0e       ?getloc@?$basic_streambuf@DU?$char_traits@D@std@@@std@@QBE?AVlocale@2@XZ 0042ea0e f   msvcprt:MSVCP140.dll
 0001:0002da14       ?sgetc@?$basic_streambuf@DU?$char_traits@D@std@@@std@@QAEHXZ 0042ea14 f   msvcprt:MSVCP140.dll
 0001:0002da1a       ?snextc@?$basic_streambuf@DU?$char_traits@D@std@@@std@@QAEHXZ 0042ea1a f   msvcprt:MSVCP140.dll
 0001:0002da20       ?sputc@?$basic_streambuf@DU?$char_traits@D@std@@@std@@QAEHD@Z 0042ea20 f   msvcprt:MSVCP140.dll
 0001:0002da26       ?sputn@?$basic_streambuf@DU?$char_traits@D@std@@@std@@QAE_JPBD_J@Z 0042ea26 f   msvcprt:MSVCP140.dll
 0001:0002da2c       ?eback@?$basic_streambuf@DU?$char_traits@D@std@@@std@@IBEPADXZ 0042ea2c f   msvcprt:MSVCP140.dll
 0001:0002da32       ?gptr@?$basic_streambuf@DU?$char_traits@D@std@@@std@@IBEPADXZ 0042ea32 f   msvcprt:MSVCP140.dll
 0001:0002da38       ?pptr@?$basic_streambuf@DU?$char_traits@D@std@@@std@@IBEPADXZ 0042ea38 f   msvcprt:MSVCP140.dll
 0001:0002da3e       ?egptr@?$basic_streambuf@DU?$char_traits@D@std@@@std@@IBEPADXZ 0042ea3e f   msvcprt:MSVCP140.dll
 0001:0002da44       ?gbump@?$basic_streambuf@DU?$char_traits@D@std@@@std@@IAEXH@Z 0042ea44 f   msvcprt:MSVCP140.dll
 0001:0002da4a       ?setg@?$basic_streambuf@DU?$char_traits@D@std@@@std@@IAEXPAD00@Z 0042ea4a f   msvcprt:MSVCP140.dll
 0001:0002da50       ?epptr@?$basic_streambuf@DU?$char_traits@D@std@@@std@@IBEPADXZ 0042ea50 f   msvcprt:MSVCP140.dll
 0001:0002da56       ?_Gndec@?$basic_streambuf@DU?$char_traits@D@std@@@std@@IAEPADXZ 0042ea56 f   msvcprt:MSVCP140.dll
 0001:0002da5c       ?_Gninc@?$basic_streambuf@DU?$char_traits@D@std@@@std@@IAEPADXZ 0042ea5c f   msvcprt:MSVCP140.dll
 0001:0002da62       ?_Gnavail@?$basic_streambuf@DU?$char_traits@D@std@@@std@@IBE_JXZ 0042ea62 f   msvcprt:MSVCP140.dll
 0001:0002da68       ?pbump@?$basic_streambuf@DU?$char_traits@D@std@@@std@@IAEXH@Z 0042ea68 f   msvcprt:MSVCP140.dll
 0001:0002da6e       ?_Pninc@?$basic_streambuf@DU?$char_traits@D@std@@@std@@IAEPADXZ 0042ea6e f   msvcprt:MSVCP140.dll
 0001:0002da74       ?_Pnavail@?$basic_streambuf@DU?$char_traits@D@std@@@std@@IBE_JXZ 0042ea74 f   msvcprt:MSVCP140.dll
 0001:0002da7a       ?_Init@?$basic_streambuf@DU?$char_traits@D@std@@@std@@IAEXXZ 0042ea7a f   msvcprt:MSVCP140.dll
 0001:0002da80       ?_Init@?$basic_streambuf@DU?$char_traits@D@std@@@std@@IAEXPAPAD0PAH001@Z 0042ea80 f   msvcprt:MSVCP140.dll
 0001:0002da86       ?xsgetn@?$basic_streambuf@DU?$char_traits@D@std@@@std@@MAE_JPAD_J@Z 0042ea86 f   msvcprt:MSVCP140.dll
 0001:0002da8c       ?xsputn@?$basic_streambuf@DU?$char_traits@D@std@@@std@@MAE_JPBD_J@Z 0042ea8c f   msvcprt:MSVCP140.dll
 0001:0002da92       ??1?$basic_ios@DU?$char_traits@D@std@@@std@@UAE@XZ 0042ea92 f   msvcprt:MSVCP140.dll
 0001:0002da98       ?clear@?$basic_ios@DU?$char_traits@D@std@@@std@@QAEXH_N@Z 0042ea98 f   msvcprt:MSVCP140.dll
 0001:0002da9e       ?setstate@?$basic_ios@DU?$char_traits@D@std@@@std@@QAEXH_N@Z 0042ea9e f   msvcprt:MSVCP140.dll
 0001:0002daa4       ?tie@?$basic_ios@DU?$char_traits@D@std@@@std@@QBEPAV?$basic_ostream@DU?$char_traits@D@std@@@2@XZ 0042eaa4 f   msvcprt:MSVCP140.dll
 0001:0002daaa       ?rdbuf@?$basic_ios@DU?$char_traits@D@std@@@std@@QBEPAV?$basic_streambuf@DU?$char_traits@D@std@@@2@XZ 0042eaaa f   msvcprt:MSVCP140.dll
 0001:0002dab0       ?fill@?$basic_ios@DU?$char_traits@D@std@@@std@@QBEDXZ 0042eab0 f   msvcprt:MSVCP140.dll
 0001:0002dab6       ??0?$basic_ios@DU?$char_traits@D@std@@@std@@IAE@XZ 0042eab6 f   msvcprt:MSVCP140.dll
 0001:0002dabc       ??0?$basic_ostream@DU?$char_traits@D@std@@@std@@QAE@PAV?$basic_streambuf@DU?$char_traits@D@std@@@1@_N@Z 0042eabc f   msvcprt:MSVCP140.dll
 0001:0002dac2       ??1?$basic_ostream@DU?$char_traits@D@std@@@std@@UAE@XZ 0042eac2 f   msvcprt:MSVCP140.dll
 0001:0002dac8       ?_Osfx@?$basic_ostream@DU?$char_traits@D@std@@@std@@QAEXXZ 0042eac8 f   msvcprt:MSVCP140.dll
 0001:0002dace       ?flush@?$basic_ostream@DU?$char_traits@D@std@@@std@@QAEAAV12@XZ 0042eace f   msvcprt:MSVCP140.dll
 0001:0002dad4       ??0?$basic_istream@DU?$char_traits@D@std@@@std@@QAE@PAV?$basic_streambuf@DU?$char_traits@D@std@@@1@_N@Z 0042ead4 f   msvcprt:MSVCP140.dll
 0001:0002dada       ??1?$basic_istream@DU?$char_traits@D@std@@@std@@UAE@XZ 0042eada f   msvcprt:MSVCP140.dll
 0001:0002dae0       ?_Ipfx@?$basic_istream@DU?$char_traits@D@std@@@std@@QAE_N_N@Z 0042eae0 f   msvcprt:MSVCP140.dll
 0001:0002dae6       ??5?$basic_istream@DU?$char_traits@D@std@@@std@@QAEAAV01@AAH@Z 0042eae6 f   msvcprt:MSVCP140.dll
 0001:0002daec       ?_Fiopen@std@@YAPAU_iobuf@@PBDHH@Z 0042eaec f   msvcprt:MSVCP140.dll
 0001:0002daf2       ?showmanyc@?$basic_streambuf@DU?$char_traits@D@std@@@std@@MAE_JXZ 0042eaf2 f   msvcprt:MSVCP140.dll
 0001:0002dddb       ?configure_argv@__scrt_narrow_argv_policy@@SAHXZ 0042eddb f i MSVCRT:exe_main.obj
 0001:0002ddeb       ?initialize_environment@__scrt_narrow_environment_policy@@SAHXZ 0042edeb f i MSVCRT:exe_main.obj
 0001:0002de1d       ?set_app_type@__scrt_main_policy@@SAXXZ 0042ee1d f i MSVCRT:exe_main.obj
 0001:0002de28       ?set_commode@__scrt_file_policy@@SAXXZ 0042ee28 f i MSVCRT:exe_main.obj
 0001:0002de3d       ?set_fmode@__scrt_file_policy@@SAXXZ 0042ee3d f i MSVCRT:exe_main.obj
 0001:0002de4d       _mainCRTStartup            0042ee4d f   MSVCRT:exe_main.obj
 0001:0002de59       ??3@YAXPAXI@Z              0042ee59 f   MSVCRT:delete_scalar_size.obj
 0001:0002de6a       @__security_check_cookie@4 0042ee6a f   MSVCRT:secchk.obj
 0001:0002de7f       ??1type_info@@UAE@XZ       0042ee7f f   MSVCRT:std_type_info_static.obj
 0001:0002de86       ??_Gtype_info@@UAEPAXI@Z   0042ee86 f i MSVCRT:std_type_info_static.obj
 0001:0002de86       ??_Etype_info@@UAEPAXI@Z   0042ee86 f i MSVCRT:std_type_info_static.obj
 0001:0002dec0       __ftol2_sse                0042eec0 f   MSVCRT:ftol2.obj
 0001:0002dec9       __ftol2_pentium4           0042eec9 f   MSVCRT:ftol2.obj
 0001:0002dedc       __ftol2_sse_excpt          0042eedc f   MSVCRT:ftol2.obj
 0001:0002df00       __ftol2                    0042ef00 f   MSVCRT:ftol2.obj
 0001:0002dfa2       ??2@YAPAXI@Z               0042efa2 f   MSVCRT:new_scalar.obj
 0001:0002dfde       ??_U@YAPAXI@Z              0042efde f   MSVCRT:new_array.obj
 0001:0002dfe9       ??_V@YAXPAX@Z              0042efe9 f   MSVCRT:delete_array.obj
 0001:0002dfee       ??$__crt_fast_decode_pointer@PAP6AXXZ@@YAPAP6AXXZQAP6AXXZ@Z 0042efee f i MSVCRT:utility.obj
 0001:0002e007       ??$__crt_fast_encode_pointer@PAP6AXXZ@@YAPAP6AXXZQAP6AXXZ@Z 0042f007 f i MSVCRT:utility.obj
 0001:0002e02b       ?__crt_rotate_pointer_value@@YAIIH@Z 0042f02b f i MSVCRT:utility.obj
 0001:0002e0d1       _NtCurrentTeb              0042f0d1 f i MSVCRT:utility.obj
 0001:0002e0d8       ___scrt_acquire_startup_lock 0042f0d8 f   MSVCRT:utility.obj
 0001:0002e116       ___scrt_dllmain_after_initialize_c 0042f116 f   MSVCRT:utility.obj
 0001:0002e14b       ___scrt_dllmain_before_initialize_c 0042f14b f   MSVCRT:utility.obj
 0001:0002e15c       ___scrt_dllmain_crt_thread_attach 0042f15c f   MSVCRT:utility.obj
 0001:0002e182       ___scrt_dllmain_crt_thread_detach 0042f182 f   MSVCRT:utility.obj
 0001:0002e192       ___scrt_dllmain_exception_filter 0042f192 f   MSVCRT:utility.obj
 0001:0002e1d3       ___scrt_dllmain_uninitialize_c 0042f1d3 f   MSVCRT:utility.obj
 0001:0002e1fe       ___scrt_dllmain_uninitialize_critical 0042f1fe f   MSVCRT:utility.obj
 0001:0002e20e       ___scrt_initialize_crt     0042f20e f   MSVCRT:utility.obj
 0001:0002e255       ___scrt_initialize_onexit_tables 0042f255 f   MSVCRT:utility.obj
 0001:0002e323       ___scrt_is_nonwritable_in_current_image 0042f323 f   MSVCRT:utility.obj
 0001:0002e3dc       ___scrt_release_startup_lock 0042f3dc f   MSVCRT:utility.obj
 0001:0002e400       ___scrt_uninitialize_crt   0042f400 f   MSVCRT:utility.obj
 0001:0002e432       __onexit                   0042f432 f   MSVCRT:utility.obj
 0001:0002e47b       _at_quick_exit             0042f47b f   MSVCRT:utility.obj
 0001:0002e4b8       _atexit                    0042f4b8 f   MSVCRT:utility.obj
 0001:0002e4d2       @_guard_check_icall_nop@4  0042f4d2 f i MSVCRT:guard_support.obj
 0001:0002e4d3       _ReadNoFence               0042f4d3 f i MSVCRT:guard_support.obj
 0001:0002e4df       _ReadPointerNoFence        0042f4df f i MSVCRT:guard_support.obj
 0001:0002e4eb       __guard_icall_checks_enforced 0042f4eb f i MSVCRT:guard_support.obj
 0001:0002e561       ___security_init_cookie    0042f561 f   MSVCRT:gs_support.obj
 0001:0002e5be       __matherr                  0042f5be f   MSVCRT:matherr.obj
 0001:0002e5c1       __get_startup_argv_mode    0042f5c1 f   MSVCRT:argv_mode.obj
 0001:0002e5c5       __get_startup_commit_mode  0042f5c5 f   MSVCRT:commit_mode.obj
 0001:0002e5c8       __get_startup_file_mode    0042f5c8 f   MSVCRT:file_mode.obj
 0001:0002e5ce       __get_startup_new_mode     0042f5ce f   MSVCRT:new_mode.obj
 0001:0002e5d1       __get_startup_thread_locale_mode 0042f5d1 f   MSVCRT:thread_locale.obj
 0001:0002e5d4       ?__scrt_initialize_type_info@@YAXXZ 0042f5d4 f   MSVCRT:tncleanup.obj
 0001:0002e5e3       ?__scrt_uninitialize_type_info@@YAXXZ 0042f5e3 f   MSVCRT:tncleanup.obj
 0001:0002e5f2       __should_initialize_environment 0042f5f2 f   MSVCRT:env_mode.obj
 0001:0002e5f5       __initialize_default_precision 0042f5f5 f   MSVCRT:default_precision.obj
 0001:0002e61e       __initialize_invalid_parameter_handler 0042f61e f   MSVCRT:invalid_parameter_handler.obj
 0001:0002e61f       __initialize_denormal_control 0042f61f f   MSVCRT:denormal_control.obj
 0001:0002e620       ___local_stdio_scanf_options 0042f620 f i MSVCRT:default_local_stdio_options.obj
 0001:0002e626       ___scrt_initialize_default_local_stdio_options 0042f626 f   MSVCRT:default_local_stdio_options.obj
 0001:0002e64a       ___scrt_is_user_matherr_present 0042f64a f   MSVCRT:matherr_detection.obj
 0001:0002e659       ___scrt_get_dyn_tls_init_callback 0042f659 f   MSVCRT:dyn_tls_init.obj
 0001:0002e65f       ___scrt_get_dyn_tls_dtor_callback 0042f65f f   MSVCRT:dyn_tls_dtor.obj
 0001:0002e665       ___scrt_fastfail           0042f665 f   MSVCRT:utility_desktop.obj
 0001:0002e7c5       ___scrt_get_show_window_mode 0042f7c5 f   MSVCRT:utility_desktop.obj
 0001:0002e802       ___scrt_initialize_mta     0042f802 f   MSVCRT:utility_desktop.obj
 0001:0002e807       ___scrt_initialize_winrt   0042f807 f   MSVCRT:utility_desktop.obj
 0001:0002e80a       ___scrt_is_managed_app     0042f80a f   MSVCRT:utility_desktop.obj
 0001:0002e85d       ___scrt_set_unhandled_exception_filter 0042f85d f   MSVCRT:utility_desktop.obj
 0001:0002e86c       ___scrt_exe_initialize_mta 0042f86c f   MSVCRT:utility_desktop.obj
 0001:0002e86c       ___scrt_stub_for_initialize_mta 0042f86c f   MSVCRT:utility_desktop.obj
 0001:0002e86f       ___scrt_unhandled_exception_filter@4 0042f86f f   MSVCRT:utility_desktop.obj
 0001:0002e8c0       __crt_debugger_hook        0042f8c0 f   MSVCRT:utility_desktop.obj
 0001:0002e8ca       __RTC_Initialize           0042f8ca f   MSVCRT:initsect.obj
 0001:0002e901       __RTC_Terminate            0042f901 f   MSVCRT:initsect.obj
 0001:0002e940       __SEH_prolog4              0042f940 f   MSVCRT:sehprolg4.obj
 0001:0002e986       __SEH_epilog4              0042f986 f   MSVCRT:sehprolg4.obj
 0001:0002e9b1       __except_handler4          0042f9b1 f   MSVCRT:chandler4gs.obj
 0001:0002e9dc       ??3@YAXPAX@Z               0042f9dc f   MSVCRT:delete_scalar.obj
 0001:0002e9e1       ___raise_securityfailure   0042f9e1 f   MSVCRT:gs_report.obj
 0001:0002ea13       ___report_gsfailure        0042fa13 f   MSVCRT:gs_report.obj
 0001:0002eb4a       ___report_rangecheckfailure 0042fb4a f   MSVCRT:gs_report.obj
 0001:0002eb59       ___report_securityfailure  0042fb59 f   MSVCRT:gs_report.obj
 0001:0002ec5a       ___report_securityfailureEx 0042fc5a f   MSVCRT:gs_report.obj
 0001:0002edb3       ___isa_available_init      0042fdb3 f   MSVCRT:cpu_disp.obj
 0001:0002efaf       ??0bad_alloc@std@@AAE@QBD@Z 0042ffaf f i MSVCRT:throw_bad_alloc.obj
 0001:0002efd3       ??0bad_alloc@std@@QAE@ABV01@@Z 0042ffd3 f i MSVCRT:throw_bad_alloc.obj
 0001:0002eff4       ??0bad_alloc@std@@QAE@XZ   0042fff4 f i MSVCRT:throw_bad_alloc.obj
 0001:0002f012       ??0bad_array_new_length@std@@QAE@ABV01@@Z 00430012 f i MSVCRT:throw_bad_alloc.obj
 0001:0002f033       ??0bad_array_new_length@std@@QAE@XZ 00430033 f i MSVCRT:throw_bad_alloc.obj
 0001:0002f051       ??1bad_alloc@std@@UAE@XZ   00430051 f i MSVCRT:throw_bad_alloc.obj
 0001:0002f066       ??1bad_array_new_length@std@@UAE@XZ 00430066 f i MSVCRT:throw_bad_alloc.obj
 0001:0002f07b       ??_Gbad_alloc@std@@UAEPAXI@Z 0043007b f i MSVCRT:throw_bad_alloc.obj
 0001:0002f07b       ??_Ebad_alloc@std@@UAEPAXI@Z 0043007b f i MSVCRT:throw_bad_alloc.obj
 0001:0002f0b3       ??_Ebad_array_new_length@std@@UAEPAXI@Z 004300b3 f i MSVCRT:throw_bad_alloc.obj
 0001:0002f0b3       ??_Gbad_array_new_length@std@@UAEPAXI@Z 004300b3 f i MSVCRT:throw_bad_alloc.obj
 0001:0002f0eb       ?__scrt_throw_std_bad_alloc@@YAXXZ 004300eb f   MSVCRT:throw_bad_alloc.obj
 0001:0002f10f       ?__scrt_throw_std_bad_array_new_length@@YAXXZ 0043010f f   MSVCRT:throw_bad_alloc.obj
 0001:0002f133       ___scrt_is_ucrt_dll_in_use 00430133 f   MSVCRT:ucrt_detection.obj
 0001:0002f142       ___CxxFrameHandler3        00430142 f   vcruntime:VCRUNTIME140.dll
 0001:0002f148       _memcpy                    00430148 f   vcruntime:VCRUNTIME140.dll
 0001:0002f14e       _memmove                   0043014e f   vcruntime:VCRUNTIME140.dll
 0001:0002f154       _memset                    00430154 f   vcruntime:VCRUNTIME140.dll
 0001:0002f15a       __CxxThrowException@8      0043015a f   vcruntime:VCRUNTIME140.dll
 0001:0002f160       ___RTDynamicCast           00430160 f   vcruntime:VCRUNTIME140.dll
 0001:0002f166       ___std_exception_copy      00430166 f   vcruntime:VCRUNTIME140.dll
 0001:0002f16c       ___std_exception_destroy   0043016c f   vcruntime:VCRUNTIME140.dll
 0001:0002f172       ___std_type_info_destroy_list 00430172 f   vcruntime:VCRUNTIME140.dll
 0001:0002f178       __except_handler4_common   00430178 f   vcruntime:VCRUNTIME140.dll
 0001:0002f17e       _ceil                      0043017e f   ucrt:api-ms-win-crt-math-l1-1-0.dll
 0001:0002f184       _floor                     00430184 f   ucrt:api-ms-win-crt-math-l1-1-0.dll
 0001:0002f18a       _round                     0043018a f   ucrt:api-ms-win-crt-math-l1-1-0.dll
 0001:0002f190       __invalid_parameter_noinfo_noreturn 00430190 f   ucrt:api-ms-win-crt-runtime-l1-1-0.dll
 0001:0002f196       _pow                       00430196 f   ucrt:api-ms-win-crt-math-l1-1-0.dll
 0001:0002f19c       ___acrt_iob_func           0043019c f   ucrt:api-ms-win-crt-stdio-l1-1-0.dll
 0001:0002f1a2       ___stdio_common_vfprintf   004301a2 f   ucrt:api-ms-win-crt-stdio-l1-1-0.dll
 0001:0002f1a8       ___stdio_common_vsprintf   004301a8 f   ucrt:api-ms-win-crt-stdio-l1-1-0.dll
 0001:0002f1ae       __get_stream_buffer_pointers 004301ae f   ucrt:api-ms-win-crt-stdio-l1-1-0.dll
 0001:0002f1b4       _fclose                    004301b4 f   ucrt:api-ms-win-crt-stdio-l1-1-0.dll
 0001:0002f1ba       _fflush                    004301ba f   ucrt:api-ms-win-crt-stdio-l1-1-0.dll
 0001:0002f1c0       _fgetc                     004301c0 f   ucrt:api-ms-win-crt-stdio-l1-1-0.dll
 0001:0002f1c6       _fgetpos                   004301c6 f   ucrt:api-ms-win-crt-stdio-l1-1-0.dll
 0001:0002f1cc       _fputc                     004301cc f   ucrt:api-ms-win-crt-stdio-l1-1-0.dll
 0001:0002f1d2       _fread                     004301d2 f   ucrt:api-ms-win-crt-stdio-l1-1-0.dll
 0001:0002f1d8       _fsetpos                   004301d8 f   ucrt:api-ms-win-crt-stdio-l1-1-0.dll
 0001:0002f1de       __fseeki64                 004301de f   ucrt:api-ms-win-crt-stdio-l1-1-0.dll
 0001:0002f1e4       _fwrite                    004301e4 f   ucrt:api-ms-win-crt-stdio-l1-1-0.dll
 0001:0002f1ea       _setvbuf                   004301ea f   ucrt:api-ms-win-crt-stdio-l1-1-0.dll
 0001:0002f1f0       _ungetc                    004301f0 f   ucrt:api-ms-win-crt-stdio-l1-1-0.dll
 0001:0002f1f6       __lock_file                004301f6 f   ucrt:api-ms-win-crt-filesystem-l1-1-0.dll
 0001:0002f1fc       __unlock_file              004301fc f   ucrt:api-ms-win-crt-filesystem-l1-1-0.dll
 0001:0002f202       _strcpy                    00430202 f   ucrt:api-ms-win-crt-string-l1-1-0.dll
 0001:0002f208       _strlen                    00430208 f   ucrt:api-ms-win-crt-string-l1-1-0.dll
 0001:0002f20e       _srand                     0043020e f   ucrt:api-ms-win-crt-utility-l1-1-0.dll
 0001:0002f214       __time64                   00430214 f   ucrt:api-ms-win-crt-time-l1-1-0.dll
 0001:0002f21a       _atan                      0043021a f   ucrt:api-ms-win-crt-math-l1-1-0.dll
 0001:0002f220       _cos                       00430220 f   ucrt:api-ms-win-crt-math-l1-1-0.dll
 0001:0002f226       _sin                       00430226 f   ucrt:api-ms-win-crt-math-l1-1-0.dll
 0001:0002f22c       _strcmp                    0043022c f   ucrt:api-ms-win-crt-string-l1-1-0.dll
 0001:0002f232       _abs                       00430232 f   ucrt:api-ms-win-crt-utility-l1-1-0.dll
 0001:0002f238       _fabs                      00430238 f   ucrt:api-ms-win-crt-math-l1-1-0.dll
 0001:0002f23e       _sqrt                      0043023e f   ucrt:api-ms-win-crt-math-l1-1-0.dll
 0001:0002f244       _rand                      00430244 f   ucrt:api-ms-win-crt-utility-l1-1-0.dll
 0001:0002f24a       __wassert                  0043024a f   ucrt:api-ms-win-crt-runtime-l1-1-0.dll
 0001:0002f250       _roundf                    00430250 f   ucrt:api-ms-win-crt-math-l1-1-0.dll
 0001:0002f256       __seh_filter_exe           00430256 f   ucrt:api-ms-win-crt-runtime-l1-1-0.dll
 0001:0002f25c       __set_app_type             0043025c f   ucrt:api-ms-win-crt-runtime-l1-1-0.dll
 0001:0002f262       ___setusermatherr          00430262 f   ucrt:api-ms-win-crt-math-l1-1-0.dll
 0001:0002f268       __configure_narrow_argv    00430268 f   ucrt:api-ms-win-crt-runtime-l1-1-0.dll
 0001:0002f26e       __initialize_narrow_environment 0043026e f   ucrt:api-ms-win-crt-runtime-l1-1-0.dll
 0001:0002f274       __get_initial_narrow_environment 00430274 f   ucrt:api-ms-win-crt-runtime-l1-1-0.dll
 0001:0002f27a       __initterm                 0043027a f   ucrt:api-ms-win-crt-runtime-l1-1-0.dll
 0001:0002f280       __initterm_e               00430280 f   ucrt:api-ms-win-crt-runtime-l1-1-0.dll
 0001:0002f286       _exit                      00430286 f   ucrt:api-ms-win-crt-runtime-l1-1-0.dll
 0001:0002f28c       __exit                     0043028c f   ucrt:api-ms-win-crt-runtime-l1-1-0.dll
 0001:0002f292       __set_fmode                00430292 f   ucrt:api-ms-win-crt-stdio-l1-1-0.dll
 0001:0002f298       ___p___argc                00430298 f   ucrt:api-ms-win-crt-runtime-l1-1-0.dll
 0001:0002f29e       ___p___argv                0043029e f   ucrt:api-ms-win-crt-runtime-l1-1-0.dll
 0001:0002f2a4       __cexit                    004302a4 f   ucrt:api-ms-win-crt-runtime-l1-1-0.dll
 0001:0002f2aa       __c_exit                   004302aa f   ucrt:api-ms-win-crt-runtime-l1-1-0.dll
 0001:0002f2b0       __register_thread_local_exe_atexit_callback 004302b0 f   ucrt:api-ms-win-crt-runtime-l1-1-0.dll
 0001:0002f2b6       __configthreadlocale       004302b6 f   ucrt:api-ms-win-crt-locale-l1-1-0.dll
 0001:0002f2bc       __set_new_mode             004302bc f   ucrt:api-ms-win-crt-heap-l1-1-0.dll
 0001:0002f2c2       ___p__commode              004302c2 f   ucrt:api-ms-win-crt-stdio-l1-1-0.dll
 0001:0002f2c8       __callnewh                 004302c8 f   ucrt:api-ms-win-crt-heap-l1-1-0.dll
 0001:0002f2ce       _malloc                    004302ce f   ucrt:api-ms-win-crt-heap-l1-1-0.dll
 0001:0002f2d4       __seh_filter_dll           004302d4 f   ucrt:api-ms-win-crt-runtime-l1-1-0.dll
 0001:0002f2da       __initialize_onexit_table  004302da f   ucrt:api-ms-win-crt-runtime-l1-1-0.dll
 0001:0002f2e0       __register_onexit_function 004302e0 f   ucrt:api-ms-win-crt-runtime-l1-1-0.dll
 0001:0002f2e6       __execute_onexit_table     004302e6 f   ucrt:api-ms-win-crt-runtime-l1-1-0.dll
 0001:0002f2ec       __crt_atexit               004302ec f   ucrt:api-ms-win-crt-runtime-l1-1-0.dll
 0001:0002f2f2       __crt_at_quick_exit        004302f2 f   ucrt:api-ms-win-crt-runtime-l1-1-0.dll
 0001:0002f2f8       __controlfp_s              004302f8 f   ucrt:api-ms-win-crt-runtime-l1-1-0.dll
 0001:0002f2fe       _terminate                 004302fe f   ucrt:api-ms-win-crt-runtime-l1-1-0.dll
 0001:0002f304       _free                      00430304 f   ucrt:api-ms-win-crt-heap-l1-1-0.dll
 0001:0002f480       _WinMain@16                00430480 f   SDL2main:SDL_windows_main.obj
 0001:0002f600       _main                      00430600 f   SDL2main:SDL_windows_main.obj
 0001:0002f620       _wmain                     00430620 f   SDL2main:SDL_windows_main.obj
 0001:0002f6c5       _QueryPerformanceCounter@4 004306c5 f   kernel32:KERNEL32.dll
 0001:0002f6cb       _GetCurrentProcessId@0     004306cb f   kernel32:KERNEL32.dll
 0001:0002f6d1       _GetCurrentThreadId@0      004306d1 f   kernel32:KERNEL32.dll
 0001:0002f6d7       _GetSystemTimeAsFileTime@4 004306d7 f   kernel32:KERNEL32.dll
 0001:0002f6dd       _InitializeSListHead@4     004306dd f   kernel32:KERNEL32.dll
 0001:0002f6e3       _IsDebuggerPresent@0       004306e3 f   kernel32:KERNEL32.dll
 0001:0002f6e9       _UnhandledExceptionFilter@4 004306e9 f   kernel32:KERNEL32.dll
 0001:0002f6ef       _SetUnhandledExceptionFilter@4 004306ef f   kernel32:KERNEL32.dll
 0001:0002f6f5       _GetStartupInfoW@4         004306f5 f   kernel32:KERNEL32.dll
 0001:0002f6fb       _IsProcessorFeaturePresent@4 004306fb f   kernel32:KERNEL32.dll
 0001:0002f701       _GetModuleHandleW@4        00430701 f   kernel32:KERNEL32.dll
 0001:0002f707       _GetCurrentProcess@0       00430707 f   kernel32:KERNEL32.dll
 0001:0002f70d       _TerminateProcess@8        0043070d f   kernel32:KERNEL32.dll
 0001:0002f713       _GetCommandLineW@0         00430713 f   kernel32:KERNEL32.dll
 0001:0002f719       _SDL_malloc                00430719 f   SDL2:SDL2.dll
 0001:0002f71f       _SDL_free                  0043071f f   SDL2:SDL2.dll
 0001:0002f725       _SDL_isspace               00430725 f   SDL2:SDL2.dll
 0001:0002f72b       _SDL_wcslen                0043072b f   SDL2:SDL2.dll
 0001:0002f731       _SDL_iconv_string          00430731 f   SDL2:SDL2.dll
 0001:0002f737       _SDL_SetMainReady          00430737 f   SDL2:SDL2.dll
 0001:0002f73d       _SDL_ShowSimpleMessageBox  0043073d f   SDL2:SDL2.dll
 0001:0002f743       ___vcrt_initialize         00430743 f   MSVCRT:ucrt_stubs.obj
 0001:0002f743       ___scrt_stub_for_acrt_initialize 00430743 f   MSVCRT:ucrt_stubs.obj
 0001:0002f743       ___acrt_initialize         00430743 f   MSVCRT:ucrt_stubs.obj
 0001:0002f746       ___vcrt_thread_attach      00430746 f   MSVCRT:ucrt_stubs.obj
 0001:0002f746       ___scrt_stub_for_acrt_thread_attach 00430746 f   MSVCRT:ucrt_stubs.obj
 0001:0002f746       ___acrt_thread_attach      00430746 f   MSVCRT:ucrt_stubs.obj
 0001:0002f749       ___scrt_stub_for_acrt_thread_detach 00430749 f   MSVCRT:ucrt_stubs.obj
 0001:0002f749       ___vcrt_thread_detach      00430749 f   MSVCRT:ucrt_stubs.obj
 0001:0002f749       ___acrt_thread_detach      00430749 f   MSVCRT:ucrt_stubs.obj
 0001:0002f74c       ___acrt_uninitialize       0043074c f   MSVCRT:ucrt_stubs.obj
 0001:0002f74c       ___vcrt_uninitialize       0043074c f   MSVCRT:ucrt_stubs.obj
 0001:0002f74c       ___scrt_stub_for_acrt_uninitialize 0043074c f   MSVCRT:ucrt_stubs.obj
 0001:0002f74f       ___vcrt_uninitialize_critical 0043074f f   MSVCRT:ucrt_stubs.obj
 0001:0002f74f       ___acrt_uninitialize_critical 0043074f f   MSVCRT:ucrt_stubs.obj
 0001:0002f74f       ___scrt_stub_for_acrt_uninitialize_critical 0043074f f   MSVCRT:ucrt_stubs.obj
 0001:0002f752       __is_c_termination_complete 00430752 f   MSVCRT:ucrt_stubs.obj
 0001:0002f752       ___scrt_stub_for_is_c_termination_complete 00430752 f   MSVCRT:ucrt_stubs.obj
 0002:00000000       ___xc_a                    00436000     MSVCRT:initializers.obj
 0002:0000030c       ___xc_z                    0043630c     MSVCRT:initializers.obj
 0002:00000410       ___xi_a                    00436410     MSVCRT:initializers.obj
 0002:0000071c       ___xi_z                    0043671c     MSVCRT:initializers.obj
 0002:00000820       ___xp_a                    00436820     MSVCRT:initializers.obj
 0002:00000924       ___xp_z                    00436924     MSVCRT:initializers.obj
 0002:00000a28       ___xt_a                    00436a28     MSVCRT:initializers.obj
 0002:00000b2c       ___xt_z                    00436b2c     MSVCRT:initializers.obj
 0002:00000c34       ??_7BouncingObject@@6B@    00436c34     BouncingObject.obj
 0002:00000c50       ??_7Enemy@@6B@             00436c50     Enemy.obj
 0002:00000c68       __real@3fb999999999999a    00436c68     Enemy.obj
 0002:00000c78       __real@3fc3333333333333    00436c78     Enemy.obj
 0002:00000c88       __real@3ff0000000000000    00436c88     Enemy.obj
 0002:00000c98       __real@41cdcd6500000000    00436c98     Enemy.obj
 0002:00000d2c       ??_7TileManager@@6B@       00436d2c     GameMain.obj
 0002:00000d40       ??_7MapTileManager@@6B@    00436d40     GameMain.obj
 0002:00000d54       ??_7GameMain@@6B@          00436d54     GameMain.obj
 0002:00000d6c       ??_C@_0BD@OMLIHPDA@drawGrid?$FL?$CFd?$FN?5?$DN?5?$CFd?6@ 00436d6c     GameMain.obj
 0002:00000d84       ??_C@_03MOPMDCCC@$?$CFd@   00436d84     GameMain.obj
 0002:00000d88       ??_C@_06IPGPIAII@?$CFd?5?$CFd?6@ 00436d88     GameMain.obj
 0002:00000d90       ??_C@_0BD@OLBABOEK@vector?$DMT?$DO?5too?5long@ 00436d90     GameMain.obj
 0002:00000da8       __real@3fe0000000000000    00436da8     GameMain.obj
 0002:00000db8       __real@4059000000000000    00436db8     GameMain.obj
 0002:00000ea4       ??_7exception@std@@6B@     00436ea4     GameOverState.obj
 0002:00000eb0       ??_C@_0BC@EOODALEL@Unknown?5exception@ 00436eb0     GameOverState.obj
 0002:00000ecc       ??_7bad_cast@std@@6B@      00436ecc     GameOverState.obj
 0002:00000ed8       ??_C@_08EPJLHIJG@bad?5cast@ 00436ed8     GameOverState.obj
 0002:00000ee2       ??_C@_00CNPNBAHC@@         00436ee2     GameOverState.obj
 0002:00000ee8       ??_7?$basic_filebuf@DU?$char_traits@D@std@@@std@@6B@ 00436ee8     GameOverState.obj
 0002:00000f34       ??_7?$basic_ifstream@DU?$char_traits@D@std@@@std@@6B@ 00436f34     GameOverState.obj
 0002:00000f3c       ??_8?$basic_ifstream@DU?$char_traits@D@std@@@std@@7B@ 00436f3c     GameOverState.obj
 0002:00000f48       ??_C@_0P@DFFEKPGF@highscores?4txt@ 00436f48     GameOverState.obj
 0002:00000f60       ??_7GameOverState@@6B@     00436f60     GameOverState.obj
 0002:00000f7c       ??_7?$basic_ofstream@DU?$char_traits@D@std@@@std@@6B@ 00436f7c     GameOverState.obj
 0002:00000f84       ??_8?$basic_ofstream@DU?$char_traits@D@std@@@std@@7B@ 00436f84     GameOverState.obj
 0002:00000f90       ??_C@_0BI@CFPLBAOH@invalid?5string?5position@ 00436f90     GameOverState.obj
 0002:00000fac       ??_C@_0BA@JFNIOLAK@string?5too?5long@ 00436fac     GameOverState.obj
 0002:00000fc4       ??_7GameState@@6B@         00436fc4     GameState.obj
 0002:00000fe0       ??_7MenuState@@6B@         00436fe0     GameStateManager.obj
 0002:00000ffc       ??_7HighscoresState@@6B@   00436ffc     GameStateManager.obj
 0002:00001110       __real@4056400000000000    00437110     HighscoresState.obj
 0002:00001120       __real@4056800000000000    00437120     HighscoresState.obj
 0002:00001130       __real@405e000000000000    00437130     HighscoresState.obj
 0002:00001140       __real@4068c00000000000    00437140     HighscoresState.obj
 0002:00001150       __real@4069000000000000    00437150     HighscoresState.obj
 0002:00001160       __real@406f200000000000    00437160     HighscoresState.obj
 0002:00001170       __real@406f400000000000    00437170     HighscoresState.obj
 0002:00001180       __real@4075e00000000000    00437180     HighscoresState.obj
 0002:00001190       __real@4075f00000000000    00437190     HighscoresState.obj
 0002:000011a0       __real@4079000000000000    004371a0     HighscoresState.obj
 0002:000011b0       __real@4079200000000000    004371b0     HighscoresState.obj
 0002:000011f0       ??_7Game@@6B@              004371f0     mainfunction.obj
 0002:000012d4       ??_7BaseEngine@@6B@        004372d4     BaseEngine.obj
 0002:00001348       __real@3fe0c152382d7365    00437348     BaseEngine.obj
 0002:00001358       __real@3ff8000000000000    00437358     BaseEngine.obj
 0002:00001368       __real@3ff921fb54442d18    00437368     BaseEngine.obj
 0002:00001378       __real@4000000000000000    00437378     BaseEngine.obj
 0002:00001388       __real@4008000000000000    00437388     BaseEngine.obj
 0002:00001398       __real@400921fb54442d18    00437398     BaseEngine.obj
 0002:000013a8       __real@400f6a7a2955385e    004373a8     BaseEngine.obj
 0002:000013b8       __real@4010000000000000    004373b8     BaseEngine.obj
 0002:000013c8       __real@401921fb54442d18    004373c8     BaseEngine.obj
 0002:000013d8       ??_7DisplayableObject@@6B@ 004373d8     DisplayableObject.obj
 0002:0000142c       ??_C@_0BI@GMOFELCF@Free?5font?3?5?$CFd?5point?5?$CFs?6@ 0043742c     FontManager.obj
 0002:00001448       __real@3f50624dd2f1a9fc    00437448     JPGImage.obj
 0002:00001458       __real@406fe00000000000    00437458     JPGImage.obj
 0002:00001470       __xmm@41f00000000000000000000000000000 00437470     JPGImage.obj
 0002:000015a4       __real@3f2aaaab            004375a4     MenuState.obj
 0002:000015a8       __real@406e000000000000    004375a8     MenuState.obj
 0002:000015b8       __real@4070900000000000    004375b8     MenuState.obj
 0002:000015c8       __real@4070e00000000000    004375c8     MenuState.obj
 0002:000015d8       __real@4071300000000000    004375d8     MenuState.obj
 0002:000015e8       __real@4071800000000000    004375e8     MenuState.obj
 0002:000015f8       __real@4072200000000000    004375f8     MenuState.obj
 0002:00001608       __real@4072700000000000    00437608     MenuState.obj
 0002:00001618       __real@4072c00000000000    00437618     MenuState.obj
 0002:00001628       __real@4073100000000000    00437628     MenuState.obj
 0002:00001638       __real@4074000000000000    00437638     MenuState.obj
 0002:00001648       __real@4074a00000000000    00437648     MenuState.obj
 0002:00001658       __real@c01c000000000000    00437658     MenuState.obj
 0002:00001668       ??_7MenuTileManager@@6B@   00437668     MenuTileManager.obj
 0002:0000167c       ??_7MovableObject@@6B@     0043767c     MovableObject.obj
 0002:00001698       ??_7ProjectileBasic@@6B@   00437698     ProjectileBasic.obj
 0002:000016e8       __real@00000000            004376e8     ProjectileBasic.obj
 0002:000016ec       __real@40c00000            004376ec     ProjectileBasic.obj
 0002:000016f4       ??_7ProjectileCannon@@6B@  004376f4     ProjectileCannon.obj
 0002:00001748       ??_7ProjectileCannonFrag@@6B@ 00437748     ProjectileCannonFrag.obj
 0002:0000179c       ??_7ProjectileSniper@@6B@  0043779c     ProjectileSniper.obj
 0002:00001850       ??_C@_1JG@GAMJKIFG@?$AAf?$AA?3?$AA?2?$AAp?$AAr?$AAo?$AAg?$AAr?$AAa?$AAm?$AAm?$AAi?$AAn?$AAg?$AA?2@ 00437850     SimpleDemo.obj
 0002:00001904       ??_C@_1BA@GEGIDABA@?$AAi?$AAX?$AA?5?$AA?$DO?$AA?$DN?$AA?5?$AA0@ 00437904     SimpleDemo.obj
 0002:00001918       ??_C@_1CI@KAFMFBDA@?$AAi?$AAX?$AA?5?$AA?$DM?$AA?5?$AAm?$AA_?$AAi?$AAS?$AAc?$AAr?$AAe?$AAe?$AAn?$AAW@ 00437918     SimpleDemo.obj
 0002:00001948       ??_C@_1BA@PJGHNBGG@?$AAi?$AAY?$AA?5?$AA?$DO?$AA?$DN?$AA?5?$AA0@ 00437948     SimpleDemo.obj
 0002:0000195c       ??_C@_1CK@LKNFCKCC@?$AAi?$AAY?$AA?5?$AA?$DM?$AA?5?$AAm?$AA_?$AAi?$AAS?$AAc?$AAr?$AAe?$AAe?$AAn?$AAH@ 0043795c     SimpleDemo.obj
 0002:00001990       ??_C@_1EI@BAHIIBCJ@?$AAi?$AAX?$AA?5?$AA?$DM?$AA?5?$AAG?$AAe?$AAt?$AAI?$AAn?$AAt?$AAs?$AAP?$AAe?$AAr@ 00437990     SimpleDemo.obj
 0002:000019ec       ??_7SimpleShape@@6B@       004379ec     SimpleDemo.obj
 0002:00001a04       ??_C@_0BB@HGEFLDGP@Position?5?$CFf?0?5?$CFf?6@ 00437a04     SimpleDemo.obj
 0002:00001a18       __real@0000000000000000    00437a18     SimpleDemo.obj
 0002:00001a28       __real@3f747ae147ae147b    00437a28     SimpleDemo.obj
 0002:00001a38       __real@4004000000000000    00437a38     SimpleDemo.obj
 0002:00001a50       __xmm@80000000000000008000000000000000 00437a50     SimpleDemo.obj
 0002:00001a90       ??_7BouncingBall@@6B@      00437a90     BouncingBall.obj
 0002:00001aac       ??_7BouncingBall1@@6B@     00437aac     BouncingBall.obj
 0002:00001ac8       ??_7BouncingBall2@@6B@     00437ac8     BouncingBall.obj
 0002:00001ae0       __real@3f847ae147ae147b    00437ae0     BouncingBall.obj
 0002:00001b18       __real@3fe999999999999a    00437b18     BouncingBallMain.obj
 0002:00001b28       __real@3ff199999999999a    00437b28     BouncingBallMain.obj
 0002:00001b38       __real@3ff3333333333333    00437b38     BouncingBallMain.obj
 0002:00001b48       __real@4049000000000000    00437b48     BouncingBallMain.obj
 0002:00001b58       __real@4062c00000000000    00437b58     BouncingBallMain.obj
 0002:00001b68       __real@4066800000000000    00437b68     BouncingBallMain.obj
 0002:00001b78       __real@4074500000000000    00437b78     BouncingBallMain.obj
 0002:00001b88       __real@4079a00000000000    00437b88     BouncingBallMain.obj
 0002:00001b98       __real@407c200000000000    00437b98     BouncingBallMain.obj
 0002:00001ba8       __real@407f400000000000    00437ba8     BouncingBallMain.obj
 0002:00001bb8       __real@4081300000000000    00437bb8     BouncingBallMain.obj
 0002:00001bc8       __real@4082c00000000000    00437bc8     BouncingBallMain.obj
 0002:00001bd8       __real@4084500000000000    00437bd8     BouncingBallMain.obj
 0002:00001be8       __real@4087700000000000    00437be8     BouncingBallMain.obj
 0002:00001bf8       ??_7Demo1Main@@6B@         00437bf8     Demo1Main.obj
 0002:00001c7c       ??_7Demo2Main@@6B@         00437c7c     Demo2Main.obj
 0002:00001cf0       ??_7Demo2Object@@6B@       00437cf0     Demo2Object.obj
 0002:00001d0c       ??_7Demo2TileManager@@6B@  00437d0c     Demo2TileManager.obj
 0002:00001e1c       ??_7Demo3Main@@6B@         00437e1c     Demo3Main.obj
 0002:00001e90       ??_7Demo3Object@@6B@       00437e90     Demo3Object.obj
 0002:00001eac       ??_7Demo3ObjectFinished@@6B@ 00437eac     Demo3ObjectFinished.obj
 0002:00001ec8       ??_7Demo3TileManager@@6B@  00437ec8     Demo3TileManager.obj
 0002:00002014       ??_7Demo4Main@@6B@         00438014     Demo4Main.obj
 0002:00002088       ??_7Demo4Object@@6B@       00438088     Demo4Object.obj
 0002:000020a4       ??_7Demo4TileManager@@6B@  004380a4     Demo4TileManager.obj
 0002:000020b8       ??_7TurretBasic@@6B@       004380b8     TurretBasic.obj
 0002:000020f0       __xmm@80000000800000008000000080000000 004380f0     TurretBasic.obj
 0002:00002108       ??_7TurretCannon@@6B@      00438108     TurretCannon.obj
 0002:00002138       __real@40400000            00438138     TurretCannon.obj
 0002:00002140       ??_7TurretSniper@@6B@      00438140     TurretSniper.obj
 0002:0000236c       __real@3f800000            0043836c     WaveManager.obj
 0002:00002370       __real@3fd0000000000000    00438370     WaveManager.obj
 0002:00002380       __real@3feccccccccccccd    00438380     WaveManager.obj
 0002:0000238c       __real@40000000            0043838c     WaveManager.obj
 0002:00002390       __real@4024000000000000    00438390     WaveManager.obj
 0002:000023a0       ??_7type_info@@6B@         004383a0     MSVCRT:std_type_info_static.obj
 0002:000023b8       ??_7bad_alloc@std@@6B@     004383b8     MSVCRT:throw_bad_alloc.obj
 0002:000023c4       ??_C@_0P@GHFPNOJB@bad?5allocation@ 004383c4     MSVCRT:throw_bad_alloc.obj
 0002:000023dc       ??_7bad_array_new_length@std@@6B@ 004383dc     MSVCRT:throw_bad_alloc.obj
 0002:000023e8       ??_C@_0BF@KINCDENJ@bad?5array?5new?5length@ 004383e8     MSVCRT:throw_bad_alloc.obj
 0002:00002404       ??_C@_0BJ@HFNMHALN@Out?5of?5memory?5?9?5aborting?$AA@ 00438404     SDL2main:SDL_windows_main.obj
 0002:00002424       ??_C@_0M@HFFOIJBL@Fatal?5Error?$AA@ 00438424     SDL2main:SDL_windows_main.obj
 0002:00002434       ??_C@_08NBDJLNFA@UTF?916LE?$AA@ 00438434     SDL2main:SDL_windows_main.obj
 0002:00002440       ??_C@_05EGJIMALK@UTF?98?$AA@ 00438440     SDL2main:SDL_windows_main.obj
 0002:00002488       __load_config_used         00438488     MSVCRT:loadcfg.obj
 0002:00002714       ??_R4BouncingObject@@6B@   00438714     BouncingObject.obj
 0002:0000272c       ??_R3BouncingObject@@8     0043872c     BouncingObject.obj
 0002:00002740       ??_R2BouncingObject@@8     00438740     BouncingObject.obj
 0002:0000274c       ??_R1A@?0A@EA@BouncingObject@@8 0043874c     BouncingObject.obj
 0002:00002770       ??_R1A@?0A@EA@DisplayableObject@@8 00438770     BouncingObject.obj
 0002:00002794       ??_R3DisplayableObject@@8  00438794     BouncingObject.obj
 0002:000027a8       ??_R2DisplayableObject@@8  004387a8     BouncingObject.obj
 0002:000027b0       ??_R4Enemy@@6B@            004387b0     Enemy.obj
 0002:000027c8       ??_R3Enemy@@8              004387c8     Enemy.obj
 0002:000027dc       ??_R2Enemy@@8              004387dc     Enemy.obj
 0002:000027e8       ??_R1A@?0A@EA@Enemy@@8     004387e8     Enemy.obj
 0002:0000280c       ??_R4TileManager@@6B@      0043880c     GameMain.obj
 0002:00002824       ??_R3TileManager@@8        00438824     GameMain.obj
 0002:00002838       ??_R2TileManager@@8        00438838     GameMain.obj
 0002:00002840       ??_R1A@?0A@EA@TileManager@@8 00438840     GameMain.obj
 0002:00002864       ??_R4MapTileManager@@6B@   00438864     GameMain.obj
 0002:0000287c       ??_R3MapTileManager@@8     0043887c     GameMain.obj
 0002:00002890       ??_R2MapTileManager@@8     00438890     GameMain.obj
 0002:0000289c       ??_R1A@?0A@EA@MapTileManager@@8 0043889c     GameMain.obj
 0002:000028c0       ??_R4GameMain@@6B@         004388c0     GameMain.obj
 0002:000028d8       ??_R3GameMain@@8           004388d8     GameMain.obj
 0002:000028ec       ??_R2GameMain@@8           004388ec     GameMain.obj
 0002:000028f8       ??_R1A@?0A@EA@GameMain@@8  004388f8     GameMain.obj
 0002:0000291c       ??_R1A@?0A@EA@GameState@@8 0043891c     GameMain.obj
 0002:00002940       ??_R3GameState@@8          00438940     GameMain.obj
 0002:00002954       ??_R2GameState@@8          00438954     GameMain.obj
 0002:0000295c       ??_R4exception@std@@6B@    0043895c     GameOverState.obj
 0002:00002974       ??_R3exception@std@@8      00438974     GameOverState.obj
 0002:00002988       ??_R2exception@std@@8      00438988     GameOverState.obj
 0002:00002990       ??_R1A@?0A@EA@exception@std@@8 00438990     GameOverState.obj
 0002:000029b4       ??_R4?$basic_filebuf@DU?$char_traits@D@std@@@std@@6B@ 004389b4     GameOverState.obj
 0002:000029cc       ??_R3?$basic_filebuf@DU?$char_traits@D@std@@@std@@8 004389cc     GameOverState.obj
 0002:000029e0       ??_R2?$basic_filebuf@DU?$char_traits@D@std@@@std@@8 004389e0     GameOverState.obj
 0002:000029ec       ??_R1A@?0A@EA@?$basic_filebuf@DU?$char_traits@D@std@@@std@@8 004389ec     GameOverState.obj
 0002:00002a10       ??_R1A@?0A@EA@?$basic_streambuf@DU?$char_traits@D@std@@@std@@8 00438a10     GameOverState.obj
 0002:00002a34       ??_R3?$basic_streambuf@DU?$char_traits@D@std@@@std@@8 00438a34     GameOverState.obj
 0002:00002a48       ??_R2?$basic_streambuf@DU?$char_traits@D@std@@@std@@8 00438a48     GameOverState.obj
 0002:00002a50       ??_R4?$basic_ifstream@DU?$char_traits@D@std@@@std@@6B@ 00438a50     GameOverState.obj
 0002:00002a68       ??_R3?$basic_ifstream@DU?$char_traits@D@std@@@std@@8 00438a68     GameOverState.obj
 0002:00002a7c       ??_R2?$basic_ifstream@DU?$char_traits@D@std@@@std@@8 00438a7c     GameOverState.obj
 0002:00002a98       ??_R1A@?0A@EA@?$basic_ifstream@DU?$char_traits@D@std@@@std@@8 00438a98     GameOverState.obj
 0002:00002abc       ??_R1A@?0A@EA@?$basic_istream@DU?$char_traits@D@std@@@std@@8 00438abc     GameOverState.obj
 0002:00002ae0       ??_R3?$basic_istream@DU?$char_traits@D@std@@@std@@8 00438ae0     GameOverState.obj
 0002:00002af4       ??_R2?$basic_istream@DU?$char_traits@D@std@@@std@@8 00438af4     GameOverState.obj
 0002:00002b08       ??_R1A@A@3FA@?$basic_ios@DU?$char_traits@D@std@@@std@@8 00438b08     GameOverState.obj
 0002:00002b2c       ??_R3?$basic_ios@DU?$char_traits@D@std@@@std@@8 00438b2c     GameOverState.obj
 0002:00002b40       ??_R2?$basic_ios@DU?$char_traits@D@std@@@std@@8 00438b40     GameOverState.obj
 0002:00002b50       ??_R1A@?0A@EA@?$basic_ios@DU?$char_traits@D@std@@@std@@8 00438b50     GameOverState.obj
 0002:00002b74       ??_R1A@?0A@EA@ios_base@std@@8 00438b74     GameOverState.obj
 0002:00002b98       ??_R3ios_base@std@@8       00438b98     GameOverState.obj
 0002:00002bac       ??_R2ios_base@std@@8       00438bac     GameOverState.obj
 0002:00002bb8       ??_R17?0A@EA@?$_Iosb@H@std@@8 00438bb8     GameOverState.obj
 0002:00002bdc       ??_R3?$_Iosb@H@std@@8      00438bdc     GameOverState.obj
 0002:00002bf0       ??_R2?$_Iosb@H@std@@8      00438bf0     GameOverState.obj
 0002:00002bf8       ??_R1A@?0A@EA@?$_Iosb@H@std@@8 00438bf8     GameOverState.obj
 0002:00002c1c       ??_R1A@A@3EA@ios_base@std@@8 00438c1c     GameOverState.obj
 0002:00002c40       ??_R17A@3EA@?$_Iosb@H@std@@8 00438c40     GameOverState.obj
 0002:00002c64       ??_R4?$basic_ofstream@DU?$char_traits@D@std@@@std@@6B@ 00438c64     GameOverState.obj
 0002:00002c7c       ??_R3?$basic_ofstream@DU?$char_traits@D@std@@@std@@8 00438c7c     GameOverState.obj
 0002:00002c90       ??_R2?$basic_ofstream@DU?$char_traits@D@std@@@std@@8 00438c90     GameOverState.obj
 0002:00002cac       ??_R1A@?0A@EA@?$basic_ofstream@DU?$char_traits@D@std@@@std@@8 00438cac     GameOverState.obj
 0002:00002cd0       ??_R1A@?0A@EA@?$basic_ostream@DU?$char_traits@D@std@@@std@@8 00438cd0     GameOverState.obj
 0002:00002cf4       ??_R3?$basic_ostream@DU?$char_traits@D@std@@@std@@8 00438cf4     GameOverState.obj
 0002:00002d08       ??_R2?$basic_ostream@DU?$char_traits@D@std@@@std@@8 00438d08     GameOverState.obj
 0002:00002d1c       ??_R4bad_cast@std@@6B@     00438d1c     GameOverState.obj
 0002:00002d34       ??_R3bad_cast@std@@8       00438d34     GameOverState.obj
 0002:00002d48       ??_R2bad_cast@std@@8       00438d48     GameOverState.obj
 0002:00002d54       ??_R1A@?0A@EA@bad_cast@std@@8 00438d54     GameOverState.obj
 0002:00002d78       ??_R4GameOverState@@6B@    00438d78     GameOverState.obj
 0002:00002d90       ??_R3GameOverState@@8      00438d90     GameOverState.obj
 0002:00002da4       ??_R2GameOverState@@8      00438da4     GameOverState.obj
 0002:00002db0       ??_R1A@?0A@EA@GameOverState@@8 00438db0     GameOverState.obj
 0002:00002dd4       ??_R4GameState@@6B@        00438dd4     GameState.obj
 0002:00002dec       ??_R4MenuState@@6B@        00438dec     GameStateManager.obj
 0002:00002e04       ??_R3MenuState@@8          00438e04     GameStateManager.obj
 0002:00002e18       ??_R2MenuState@@8          00438e18     GameStateManager.obj
 0002:00002e24       ??_R1A@?0A@EA@MenuState@@8 00438e24     GameStateManager.obj
 0002:00002e48       ??_R4HighscoresState@@6B@  00438e48     GameStateManager.obj
 0002:00002e60       ??_R3HighscoresState@@8    00438e60     GameStateManager.obj
 0002:00002e74       ??_R2HighscoresState@@8    00438e74     GameStateManager.obj
 0002:00002e80       ??_R1A@?0A@EA@HighscoresState@@8 00438e80     GameStateManager.obj
 0002:00002ea4       ??_R1A@?0A@EA@BaseEngine@@8 00438ea4     mainfunction.obj
 0002:00002ec8       ??_R3BaseEngine@@8         00438ec8     mainfunction.obj
 0002:00002edc       ??_R2BaseEngine@@8         00438edc     mainfunction.obj
 0002:00002ee4       ??_R4Game@@6B@             00438ee4     mainfunction.obj
 0002:00002efc       ??_R3Game@@8               00438efc     mainfunction.obj
 0002:00002f10       ??_R2Game@@8               00438f10     mainfunction.obj
 0002:00002f1c       ??_R1A@?0A@EA@Game@@8      00438f1c     mainfunction.obj
 0002:00002f40       ??_R4BaseEngine@@6B@       00438f40     BaseEngine.obj
 0002:00002f58       ??_R4DisplayableObject@@6B@ 00438f58     DisplayableObject.obj
 0002:00002f70       ??_R4MenuTileManager@@6B@  00438f70     MenuTileManager.obj
 0002:00002f88       ??_R3MenuTileManager@@8    00438f88     MenuTileManager.obj
 0002:00002f9c       ??_R2MenuTileManager@@8    00438f9c     MenuTileManager.obj
 0002:00002fa8       ??_R1A@?0A@EA@MenuTileManager@@8 00438fa8     MenuTileManager.obj
 0002:00002fcc       ??_R4MovableObject@@6B@    00438fcc     MovableObject.obj
 0002:00002fe4       ??_R3MovableObject@@8      00438fe4     MovableObject.obj
 0002:00002ff8       ??_R2MovableObject@@8      00438ff8     MovableObject.obj
 0002:00003004       ??_R1A@?0A@EA@MovableObject@@8 00439004     MovableObject.obj
 0002:00003028       ??_R4ProjectileBasic@@6B@  00439028     ProjectileBasic.obj
 0002:00003040       ??_R3ProjectileBasic@@8    00439040     ProjectileBasic.obj
 0002:00003054       ??_R2ProjectileBasic@@8    00439054     ProjectileBasic.obj
 0002:00003060       ??_R1A@?0A@EA@ProjectileBasic@@8 00439060     ProjectileBasic.obj
 0002:00003084       ??_R4ProjectileCannon@@6B@ 00439084     ProjectileCannon.obj
 0002:0000309c       ??_R3ProjectileCannon@@8   0043909c     ProjectileCannon.obj
 0002:000030b0       ??_R2ProjectileCannon@@8   004390b0     ProjectileCannon.obj
 0002:000030c0       ??_R1A@?0A@EA@ProjectileCannon@@8 004390c0     ProjectileCannon.obj
 0002:000030e4       ??_R4ProjectileCannonFrag@@6B@ 004390e4     ProjectileCannonFrag.obj
 0002:000030fc       ??_R3ProjectileCannonFrag@@8 004390fc     ProjectileCannonFrag.obj
 0002:00003110       ??_R2ProjectileCannonFrag@@8 00439110     ProjectileCannonFrag.obj
 0002:00003120       ??_R1A@?0A@EA@ProjectileCannonFrag@@8 00439120     ProjectileCannonFrag.obj
 0002:00003144       ??_R4ProjectileSniper@@6B@ 00439144     ProjectileSniper.obj
 0002:0000315c       ??_R3ProjectileSniper@@8   0043915c     ProjectileSniper.obj
 0002:00003170       ??_R2ProjectileSniper@@8   00439170     ProjectileSniper.obj
 0002:00003180       ??_R1A@?0A@EA@ProjectileSniper@@8 00439180     ProjectileSniper.obj
 0002:000031a4       ??_R4SimpleShape@@6B@      004391a4     SimpleDemo.obj
 0002:000031bc       ??_R3SimpleShape@@8        004391bc     SimpleDemo.obj
 0002:000031d0       ??_R2SimpleShape@@8        004391d0     SimpleDemo.obj
 0002:000031dc       ??_R1A@?0A@EA@SimpleShape@@8 004391dc     SimpleDemo.obj
 0002:00003200       ??_R4BouncingBall@@6B@     00439200     BouncingBall.obj
 0002:00003218       ??_R3BouncingBall@@8       00439218     BouncingBall.obj
 0002:0000322c       ??_R2BouncingBall@@8       0043922c     BouncingBall.obj
 0002:00003238       ??_R1A@?0A@EA@BouncingBall@@8 00439238     BouncingBall.obj
 0002:0000325c       ??_R4BouncingBall1@@6B@    0043925c     BouncingBall.obj
 0002:00003274       ??_R3BouncingBall1@@8      00439274     BouncingBall.obj
 0002:00003288       ??_R2BouncingBall1@@8      00439288     BouncingBall.obj
 0002:00003298       ??_R1A@?0A@EA@BouncingBall1@@8 00439298     BouncingBall.obj
 0002:000032bc       ??_R4BouncingBall2@@6B@    004392bc     BouncingBall.obj
 0002:000032d4       ??_R3BouncingBall2@@8      004392d4     BouncingBall.obj
 0002:000032e8       ??_R2BouncingBall2@@8      004392e8     BouncingBall.obj
 0002:000032f8       ??_R1A@?0A@EA@BouncingBall2@@8 004392f8     BouncingBall.obj
 0002:0000331c       ??_R4Demo1Main@@6B@        0043931c     Demo1Main.obj
 0002:00003334       ??_R3Demo1Main@@8          00439334     Demo1Main.obj
 0002:00003348       ??_R2Demo1Main@@8          00439348     Demo1Main.obj
 0002:00003354       ??_R1A@?0A@EA@Demo1Main@@8 00439354     Demo1Main.obj
 0002:00003378       ??_R4Demo2Main@@6B@        00439378     Demo2Main.obj
 0002:00003390       ??_R3Demo2Main@@8          00439390     Demo2Main.obj
 0002:000033a4       ??_R2Demo2Main@@8          004393a4     Demo2Main.obj
 0002:000033b0       ??_R1A@?0A@EA@Demo2Main@@8 004393b0     Demo2Main.obj
 0002:000033d4       ??_R4Demo2Object@@6B@      004393d4     Demo2Object.obj
 0002:000033ec       ??_R3Demo2Object@@8        004393ec     Demo2Object.obj
 0002:00003400       ??_R2Demo2Object@@8        00439400     Demo2Object.obj
 0002:0000340c       ??_R1A@?0A@EA@Demo2Object@@8 0043940c     Demo2Object.obj
 0002:00003430       ??_R4Demo2TileManager@@6B@ 00439430     Demo2TileManager.obj
 0002:00003448       ??_R3Demo2TileManager@@8   00439448     Demo2TileManager.obj
 0002:0000345c       ??_R2Demo2TileManager@@8   0043945c     Demo2TileManager.obj
 0002:00003468       ??_R1A@?0A@EA@Demo2TileManager@@8 00439468     Demo2TileManager.obj
 0002:0000348c       ??_R4Demo3Main@@6B@        0043948c     Demo3Main.obj
 0002:000034a4       ??_R3Demo3Main@@8          004394a4     Demo3Main.obj
 0002:000034b8       ??_R2Demo3Main@@8          004394b8     Demo3Main.obj
 0002:000034c4       ??_R1A@?0A@EA@Demo3Main@@8 004394c4     Demo3Main.obj
 0002:000034e8       ??_R4Demo3Object@@6B@      004394e8     Demo3Object.obj
 0002:00003500       ??_R3Demo3Object@@8        00439500     Demo3Object.obj
 0002:00003514       ??_R2Demo3Object@@8        00439514     Demo3Object.obj
 0002:00003520       ??_R1A@?0A@EA@Demo3Object@@8 00439520     Demo3Object.obj
 0002:00003544       ??_R4Demo3ObjectFinished@@6B@ 00439544     Demo3ObjectFinished.obj
 0002:0000355c       ??_R3Demo3ObjectFinished@@8 0043955c     Demo3ObjectFinished.obj
 0002:00003570       ??_R2Demo3ObjectFinished@@8 00439570     Demo3ObjectFinished.obj
 0002:0000357c       ??_R1A@?0A@EA@Demo3ObjectFinished@@8 0043957c     Demo3ObjectFinished.obj
 0002:000035a0       ??_R4Demo3TileManager@@6B@ 004395a0     Demo3TileManager.obj
 0002:000035b8       ??_R3Demo3TileManager@@8   004395b8     Demo3TileManager.obj
 0002:000035cc       ??_R2Demo3TileManager@@8   004395cc     Demo3TileManager.obj
 0002:000035d8       ??_R1A@?0A@EA@Demo3TileManager@@8 004395d8     Demo3TileManager.obj
 0002:000035fc       ??_R4Demo4Main@@6B@        004395fc     Demo4Main.obj
 0002:00003614       ??_R3Demo4Main@@8          00439614     Demo4Main.obj
 0002:00003628       ??_R2Demo4Main@@8          00439628     Demo4Main.obj
 0002:00003634       ??_R1A@?0A@EA@Demo4Main@@8 00439634     Demo4Main.obj
 0002:00003658       ??_R4Demo4Object@@6B@      00439658     Demo4Object.obj
 0002:00003670       ??_R3Demo4Object@@8        00439670     Demo4Object.obj
 0002:00003684       ??_R2Demo4Object@@8        00439684     Demo4Object.obj
 0002:00003690       ??_R1A@?0A@EA@Demo4Object@@8 00439690     Demo4Object.obj
 0002:000036b4       ??_R4Demo4TileManager@@6B@ 004396b4     Demo4TileManager.obj
 0002:000036cc       ??_R3Demo4TileManager@@8   004396cc     Demo4TileManager.obj
 0002:000036e0       ??_R2Demo4TileManager@@8   004396e0     Demo4TileManager.obj
 0002:000036ec       ??_R1A@?0A@EA@Demo4TileManager@@8 004396ec     Demo4TileManager.obj
 0002:00003710       ??_R4TurretBasic@@6B@      00439710     TurretBasic.obj
 0002:00003728       ??_R3TurretBasic@@8        00439728     TurretBasic.obj
 0002:0000373c       ??_R2TurretBasic@@8        0043973c     TurretBasic.obj
 0002:00003748       ??_R1A@?0A@EA@TurretBasic@@8 00439748     TurretBasic.obj
 0002:0000376c       ??_R4TurretCannon@@6B@     0043976c     TurretCannon.obj
 0002:00003784       ??_R3TurretCannon@@8       00439784     TurretCannon.obj
 0002:00003798       ??_R2TurretCannon@@8       00439798     TurretCannon.obj
 0002:000037a8       ??_R1A@?0A@EA@TurretCannon@@8 004397a8     TurretCannon.obj
 0002:000037cc       ??_R4TurretSniper@@6B@     004397cc     TurretSniper.obj
 0002:000037e4       ??_R3TurretSniper@@8       004397e4     TurretSniper.obj
 0002:000037f8       ??_R2TurretSniper@@8       004397f8     TurretSniper.obj
 0002:00003808       ??_R1A@?0A@EA@TurretSniper@@8 00439808     TurretSniper.obj
 0002:0000382c       ??_R4type_info@@6B@        0043982c     MSVCRT:std_type_info_static.obj
 0002:00003844       ??_R3type_info@@8          00439844     MSVCRT:std_type_info_static.obj
 0002:00003858       ??_R2type_info@@8          00439858     MSVCRT:std_type_info_static.obj
 0002:00003860       ??_R1A@?0A@EA@type_info@@8 00439860     MSVCRT:std_type_info_static.obj
 0002:00003884       ??_R4bad_alloc@std@@6B@    00439884     MSVCRT:throw_bad_alloc.obj
 0002:0000389c       ??_R3bad_alloc@std@@8      0043989c     MSVCRT:throw_bad_alloc.obj
 0002:000038b0       ??_R2bad_alloc@std@@8      004398b0     MSVCRT:throw_bad_alloc.obj
 0002:000038bc       ??_R1A@?0A@EA@bad_alloc@std@@8 004398bc     MSVCRT:throw_bad_alloc.obj
 0002:000038e0       ??_R4bad_array_new_length@std@@6B@ 004398e0     MSVCRT:throw_bad_alloc.obj
 0002:000038f8       ??_R3bad_array_new_length@std@@8 004398f8     MSVCRT:throw_bad_alloc.obj
 0002:0000390c       ??_R2bad_array_new_length@std@@8 0043990c     MSVCRT:throw_bad_alloc.obj
 0002:0000391c       ??_R1A@?0A@EA@bad_array_new_length@std@@8 0043991c     MSVCRT:throw_bad_alloc.obj
 0002:00003ac0       ___safe_se_handler_table   00439ac0     <linker-defined>
 0002:00003f4c       ___rtc_iaa                 00439f4c     MSVCRT:initsect.obj
 0002:00004050       ___rtc_izz                 0043a050     MSVCRT:initsect.obj
 0002:00004154       ___rtc_taa                 0043a154     MSVCRT:initsect.obj
 0002:00004258       ___rtc_tzz                 0043a258     MSVCRT:initsect.obj
 0002:00004c60       __CT??_R0?AVexception@std@@@8??0exception@std@@QAE@ABV01@@Z12 0043ac60     GameOverState.obj
 0002:00004c80       __TI2?AVbad_cast@std@@     0043ac80     GameOverState.obj
 0002:00004c94       __CTA2?AVbad_cast@std@@    0043ac94     GameOverState.obj
 0002:00004ca4       __CT??_R0?AVbad_cast@std@@@8??0bad_cast@std@@QAE@ABV01@@Z12 0043aca4     GameOverState.obj
 0002:000059b0       __TI2?AVbad_alloc@std@@    0043b9b0     MSVCRT:throw_bad_alloc.obj
 0002:000059c4       __CTA2?AVbad_alloc@std@@   0043b9c4     MSVCRT:throw_bad_alloc.obj
 0002:000059d4       __CT??_R0?AVbad_alloc@std@@@8??0bad_alloc@std@@QAE@ABV01@@Z12 0043b9d4     MSVCRT:throw_bad_alloc.obj
 0002:000059f4       __TI3?AVbad_array_new_length@std@@ 0043b9f4     MSVCRT:throw_bad_alloc.obj
 0002:00005a08       __CTA3?AVbad_array_new_length@std@@ 0043ba08     MSVCRT:throw_bad_alloc.obj
 0002:00005a1c       __CT??_R0?AVbad_array_new_length@std@@@8??0bad_array_new_length@std@@QAE@ABV01@@Z12 0043ba1c     MSVCRT:throw_bad_alloc.obj
 0003:00000000       ___security_cookie_complement 0043c000     MSVCRT:gs_cookie.obj
 0003:00000004       ___security_cookie         0043c004     MSVCRT:gs_cookie.obj
 0003:00000010       __fltused                  0043c010     MSVCRT:fltused.obj
 0003:00000014       ___scrt_native_dllmain_reason 0043c014     MSVCRT:utility.obj
 0003:00000018       ___scrt_default_matherr    0043c018     MSVCRT:matherr.obj
 0003:00000020       ___isa_enabled             0043c020     MSVCRT:cpu_disp.obj
 0003:00000024       ___scrt_ucrt_dll_is_in_use 0043c024     MSVCRT:ucrt_stubs.obj
 0003:00000130       ??_R0?AVBouncingObject@@@8 0043c130     BouncingObject.obj
 0003:00000154       ??_R0?AVDisplayableObject@@@8 0043c154     BouncingObject.obj
 0003:0000017c       ??_R0?AVEnemy@@@8          0043c17c     Enemy.obj
 0003:00000194       ??_R0?AVTurretBasic@@@8    0043c194     GameMain.obj
 0003:000001b4       ??_R0?AVTileManager@@@8    0043c1b4     GameMain.obj
 0003:000001d4       ??_R0?AVMapTileManager@@@8 0043c1d4     GameMain.obj
 0003:000001f8       ??_R0?AVGameMain@@@8       0043c1f8     GameMain.obj
 0003:00000214       ??_R0?AVGameState@@@8      0043c214     GameMain.obj
 0003:00000230       ??_R0?AVexception@std@@@8  0043c230     GameOverState.obj
 0003:00000254       ??_R0?AVbad_cast@std@@@8   0043c254     GameOverState.obj
 0003:00000274       ??_R0?AV?$basic_filebuf@DU?$char_traits@D@std@@@std@@@8 0043c274     GameOverState.obj
 0003:000002bc       ??_R0?AV?$basic_streambuf@DU?$char_traits@D@std@@@std@@@8 0043c2bc     GameOverState.obj
 0003:00000304       ??_R0?AV?$basic_ifstream@DU?$char_traits@D@std@@@std@@@8 0043c304     GameOverState.obj
 0003:0000034c       ??_R0?AV?$basic_istream@DU?$char_traits@D@std@@@std@@@8 0043c34c     GameOverState.obj
 0003:00000394       ??_R0?AV?$basic_ios@DU?$char_traits@D@std@@@std@@@8 0043c394     GameOverState.obj
 0003:000003d4       ??_R0?AVios_base@std@@@8   0043c3d4     GameOverState.obj
 0003:000003f4       ??_R0?AV?$_Iosb@H@std@@@8  0043c3f4     GameOverState.obj
 0003:00000418       ??_R0?AV?$basic_ofstream@DU?$char_traits@D@std@@@std@@@8 0043c418     GameOverState.obj
 0003:00000460       ??_R0?AV?$basic_ostream@DU?$char_traits@D@std@@@std@@@8 0043c460     GameOverState.obj
 0003:000004a8       ??_R0?AVGameOverState@@@8  0043c4a8     GameOverState.obj
 0003:000004cc       ??_R0?AVMenuState@@@8      0043c4cc     GameStateManager.obj
 0003:000004e8       ??_R0?AVHighscoresState@@@8 0043c4e8     GameStateManager.obj
 0003:0000050c       ??_R0?AVBaseEngine@@@8     0043c50c     mainfunction.obj
 0003:0000052c       ??_R0?AVGame@@@8           0043c52c     mainfunction.obj
 0003:00000544       ??_R0?AVMenuTileManager@@@8 0043c544     MenuTileManager.obj
 0003:00000568       ??_R0?AVMovableObject@@@8  0043c568     MovableObject.obj
 0003:0000058c       ??_R0?AVProjectileBasic@@@8 0043c58c     ProjectileBasic.obj
 0003:000005b0       ??_R0?AVProjectileCannon@@@8 0043c5b0     ProjectileCannon.obj
 0003:000005d8       ??_R0?AVProjectileCannonFrag@@@8 0043c5d8     ProjectileCannonFrag.obj
 0003:00000604       ??_R0?AVProjectileSniper@@@8 0043c604     ProjectileSniper.obj
 0003:0000062c       ??_R0?AVSimpleShape@@@8    0043c62c     SimpleDemo.obj
 0003:0000064c       ??_R0?AVBouncingBall@@@8   0043c64c     BouncingBall.obj
 0003:0000066c       ??_R0?AVBouncingBall1@@@8  0043c66c     BouncingBall.obj
 0003:00000690       ??_R0?AVBouncingBall2@@@8  0043c690     BouncingBall.obj
 0003:000006b4       ??_R0?AVDemo1Main@@@8      0043c6b4     Demo1Main.obj
 0003:000006d0       ??_R0?AVDemo2Main@@@8      0043c6d0     Demo2Main.obj
 0003:000006ec       ??_R0?AVDemo2Object@@@8    0043c6ec     Demo2Object.obj
 0003:0000070c       ??_R0?AVDemo2TileManager@@@8 0043c70c     Demo2TileManager.obj
 0003:00000734       ??_R0?AVDemo3Main@@@8      0043c734     Demo3Main.obj
 0003:00000750       ??_R0?AVDemo3Object@@@8    0043c750     Demo3Object.obj
 0003:00000770       ??_R0?AVDemo3ObjectFinished@@@8 0043c770     Demo3ObjectFinished.obj
 0003:00000798       ??_R0?AVDemo3TileManager@@@8 0043c798     Demo3TileManager.obj
 0003:000007c0       ??_R0?AVDemo4Main@@@8      0043c7c0     Demo4Main.obj
 0003:000007dc       ??_R0?AVDemo4Object@@@8    0043c7dc     Demo4Object.obj
 0003:000007fc       ??_R0?AVDemo4TileManager@@@8 0043c7fc     Demo4TileManager.obj
 0003:00000824       ??_R0?AVTurretCannon@@@8   0043c824     TurretCannon.obj
 0003:00000844       ??_R0?AVTurretSniper@@@8   0043c844     TurretSniper.obj
 0003:00000864       ??_R0?AVtype_info@@@8      0043c864     MSVCRT:std_type_info_static.obj
 0003:00000880       ??_R0?AVbad_alloc@std@@@8  0043c880     MSVCRT:throw_bad_alloc.obj
 0003:000008a4       ??_R0?AVbad_array_new_length@std@@@8 0043c8a4     MSVCRT:throw_bad_alloc.obj
 0003:000009f8       ?_OptionsStorage@?1??__local_stdio_printf_options@@9@4_KA 0043c9f8     GameMain.obj
 0003:00000a04       ?_Stinit@?1??_Init@?$basic_filebuf@DU?$char_traits@D@std@@@std@@IAEXPAU_iobuf@@W4_Initfl@23@@Z@4U_Mbstatet@@A 0043ca04     GameOverState.obj
 0003:00000a10       ?_Psave@?$_Facetptr@V?$ctype@D@std@@@std@@2PBVfacet@locale@2@B 0043ca10     GameOverState.obj
 0003:00000a14       ?_Psave@?$_Facetptr@V?$codecvt@DDU_Mbstatet@@@std@@@std@@2PBVfacet@locale@2@B 0043ca14     GameOverState.obj
 0003:00000a18       ?g_iGlobalRotation@ImageData@@1HA 0043ca18     JPGImage.obj
 0003:00000a1c       ?g_iGlobalCropLeft@ImageData@@1HA 0043ca1c     JPGImage.obj
 0003:00000a20       ?g_iGlobalCropRight@ImageData@@1HA 0043ca20     JPGImage.obj
 0003:00000a24       ?g_iGlobalCropTop@ImageData@@1HA 0043ca24     JPGImage.obj
 0003:00000a28       ?g_iGlobalCropBottom@ImageData@@1HA 0043ca28     JPGImage.obj
 0003:00000a3c       ___scrt_current_native_startup_state 0043ca3c     MSVCRT:utility.obj
 0003:00000a40       ___scrt_native_startup_lock 0043ca40     MSVCRT:utility.obj
 0003:00000a68       ?__type_info_root_node@@3U__type_info_node@@A 0043ca68     MSVCRT:tncleanup.obj
 0003:00000a78       ?_OptionsStorage@?1??__local_stdio_scanf_options@@9@4_KA 0043ca78     MSVCRT:default_local_stdio_options.obj
 0003:00000a84       ___scrt_debugger_hook_flag 0043ca84     MSVCRT:utility_desktop.obj
 0003:00000e44       ___isa_available           0043ce44     MSVCRT:cpu_disp.obj
 0003:00000e48       ___favor                   0043ce48     MSVCRT:cpu_disp.obj
 0003:00000e50       ___dyn_tls_dtor_callback   0043ce50     <common>
 0003:00000e5c       ___dyn_tls_init_callback   0043ce5c     <common>
 0004:00000000       __imp__QueryPerformanceCounter@4 0043d000     kernel32:KERNEL32.dll
 0004:00000004       __imp__GetCurrentProcessId@0 0043d004     kernel32:KERNEL32.dll
 0004:00000008       __imp__GetCurrentThreadId@0 0043d008     kernel32:KERNEL32.dll
 0004:0000000c       __imp__GetSystemTimeAsFileTime@4 0043d00c     kernel32:KERNEL32.dll
 0004:00000010       __imp__InitializeSListHead@4 0043d010     kernel32:KERNEL32.dll
 0004:00000014       __imp__IsDebuggerPresent@0 0043d014     kernel32:KERNEL32.dll
 0004:00000018       __imp__UnhandledExceptionFilter@4 0043d018     kernel32:KERNEL32.dll
 0004:0000001c       __imp__SetUnhandledExceptionFilter@4 0043d01c     kernel32:KERNEL32.dll
 0004:00000020       __imp__GetStartupInfoW@4   0043d020     kernel32:KERNEL32.dll
 0004:00000024       __imp__IsProcessorFeaturePresent@4 0043d024     kernel32:KERNEL32.dll
 0004:00000028       __imp__GetModuleHandleW@4  0043d028     kernel32:KERNEL32.dll
 0004:0000002c       __imp__GetCurrentProcess@0 0043d02c     kernel32:KERNEL32.dll
 0004:00000030       __imp__GetCommandLineW@0   0043d030     kernel32:KERNEL32.dll
 0004:00000034       __imp__TerminateProcess@8  0043d034     kernel32:KERNEL32.dll
 0004:00000038       \177KERNEL32_NULL_THUNK_DATA 0043d038     kernel32:KERNEL32.dll
 0004:0000006c       __imp_?_Fiopen@std@@YAPAU_iobuf@@PBDHH@Z 0043d06c     msvcprt:MSVCP140.dll
 0004:00000070       __imp_??5?$basic_istream@DU?$char_traits@D@std@@@std@@QAEAAV01@AAH@Z 0043d070     msvcprt:MSVCP140.dll
 0004:00000074       __imp_?_Ipfx@?$basic_istream@DU?$char_traits@D@std@@@std@@QAE_N_N@Z 0043d074     msvcprt:MSVCP140.dll
 0004:00000078       __imp_??1?$basic_istream@DU?$char_traits@D@std@@@std@@UAE@XZ 0043d078     msvcprt:MSVCP140.dll
 0004:0000007c       __imp_??0?$basic_istream@DU?$char_traits@D@std@@@std@@QAE@PAV?$basic_streambuf@DU?$char_traits@D@std@@@1@_N@Z 0043d07c     msvcprt:MSVCP140.dll
 0004:00000080       __imp_?flush@?$basic_ostream@DU?$char_traits@D@std@@@std@@QAEAAV12@XZ 0043d080     msvcprt:MSVCP140.dll
 0004:00000084       __imp_?_Osfx@?$basic_ostream@DU?$char_traits@D@std@@@std@@QAEXXZ 0043d084     msvcprt:MSVCP140.dll
 0004:00000088       __imp_??1?$basic_ostream@DU?$char_traits@D@std@@@std@@UAE@XZ 0043d088     msvcprt:MSVCP140.dll
 0004:0000008c       __imp_??0?$basic_ostream@DU?$char_traits@D@std@@@std@@QAE@PAV?$basic_streambuf@DU?$char_traits@D@std@@@1@_N@Z 0043d08c     msvcprt:MSVCP140.dll
 0004:00000090       __imp_?showmanyc@?$basic_streambuf@DU?$char_traits@D@std@@@std@@MAE_JXZ 0043d090     msvcprt:MSVCP140.dll
 0004:00000094       __imp_?id@?$codecvt@DDU_Mbstatet@@@std@@2V0locale@2@A 0043d094     msvcprt:MSVCP140.dll
 0004:00000098       __imp_?id@?$ctype@D@std@@2V0locale@2@A 0043d098     msvcprt:MSVCP140.dll
 0004:0000009c       __imp_?_Xlength_error@std@@YAXPBD@Z 0043d09c     msvcprt:MSVCP140.dll
 0004:000000a0       __imp_??0_Lockit@std@@QAE@H@Z 0043d0a0     msvcprt:MSVCP140.dll
 0004:000000a4       __imp_??1_Lockit@std@@QAE@XZ 0043d0a4     msvcprt:MSVCP140.dll
 0004:000000a8       __imp_?uncaught_exception@std@@YA_NXZ 0043d0a8     msvcprt:MSVCP140.dll
 0004:000000ac       __imp_?_Xout_of_range@std@@YAXPBD@Z 0043d0ac     msvcprt:MSVCP140.dll
 0004:000000b0       __imp_??Bid@locale@std@@QAEIXZ 0043d0b0     msvcprt:MSVCP140.dll
 0004:000000b4       __imp_?_Getgloballocale@locale@std@@CAPAV_Locimp@12@XZ 0043d0b4     msvcprt:MSVCP140.dll
 0004:000000b8       __imp_?always_noconv@codecvt_base@std@@QBE_NXZ 0043d0b8     msvcprt:MSVCP140.dll
 0004:000000bc       __imp_?is@?$ctype@D@std@@QBE_NFD@Z 0043d0bc     msvcprt:MSVCP140.dll
 0004:000000c0       __imp_?_Getcat@?$ctype@D@std@@SAIPAPBVfacet@locale@2@PBV42@@Z 0043d0c0     msvcprt:MSVCP140.dll
 0004:000000c4       __imp_?in@?$codecvt@DDU_Mbstatet@@@std@@QBEHAAU_Mbstatet@@PBD1AAPBDPAD3AAPAD@Z 0043d0c4     msvcprt:MSVCP140.dll
 0004:000000c8       __imp_?out@?$codecvt@DDU_Mbstatet@@@std@@QBEHAAU_Mbstatet@@PBD1AAPBDPAD3AAPAD@Z 0043d0c8     msvcprt:MSVCP140.dll
 0004:000000cc       __imp_?unshift@?$codecvt@DDU_Mbstatet@@@std@@QBEHAAU_Mbstatet@@PAD1AAPAD@Z 0043d0cc     msvcprt:MSVCP140.dll
 0004:000000d0       __imp_?_Getcat@?$codecvt@DDU_Mbstatet@@@std@@SAIPAPBVfacet@locale@2@PBV42@@Z 0043d0d0     msvcprt:MSVCP140.dll
 0004:000000d4       __imp_??Bios_base@std@@QBE_NXZ 0043d0d4     msvcprt:MSVCP140.dll
 0004:000000d8       __imp_?good@ios_base@std@@QBE_NXZ 0043d0d8     msvcprt:MSVCP140.dll
 0004:000000dc       __imp_?flags@ios_base@std@@QBEHXZ 0043d0dc     msvcprt:MSVCP140.dll
 0004:000000e0       __imp_?width@ios_base@std@@QBE_JXZ 0043d0e0     msvcprt:MSVCP140.dll
 0004:000000e4       __imp_?width@ios_base@std@@QAE_J_J@Z 0043d0e4     msvcprt:MSVCP140.dll
 0004:000000e8       __imp_?getloc@ios_base@std@@QBE?AVlocale@2@XZ 0043d0e8     msvcprt:MSVCP140.dll
 0004:000000ec       __imp_??0?$basic_streambuf@DU?$char_traits@D@std@@@std@@IAE@XZ 0043d0ec     msvcprt:MSVCP140.dll
 0004:000000f0       __imp_??1?$basic_streambuf@DU?$char_traits@D@std@@@std@@UAE@XZ 0043d0f0     msvcprt:MSVCP140.dll
 0004:000000f4       __imp_?getloc@?$basic_streambuf@DU?$char_traits@D@std@@@std@@QBE?AVlocale@2@XZ 0043d0f4     msvcprt:MSVCP140.dll
 0004:000000f8       __imp_?sgetc@?$basic_streambuf@DU?$char_traits@D@std@@@std@@QAEHXZ 0043d0f8     msvcprt:MSVCP140.dll
 0004:000000fc       __imp_?snextc@?$basic_streambuf@DU?$char_traits@D@std@@@std@@QAEHXZ 0043d0fc     msvcprt:MSVCP140.dll
 0004:00000100       __imp_?sputc@?$basic_streambuf@DU?$char_traits@D@std@@@std@@QAEHD@Z 0043d100     msvcprt:MSVCP140.dll
 0004:00000104       __imp_?sputn@?$basic_streambuf@DU?$char_traits@D@std@@@std@@QAE_JPBD_J@Z 0043d104     msvcprt:MSVCP140.dll
 0004:00000108       __imp_?eback@?$basic_streambuf@DU?$char_traits@D@std@@@std@@IBEPADXZ 0043d108     msvcprt:MSVCP140.dll
 0004:0000010c       __imp_?gptr@?$basic_streambuf@DU?$char_traits@D@std@@@std@@IBEPADXZ 0043d10c     msvcprt:MSVCP140.dll
 0004:00000110       __imp_?pptr@?$basic_streambuf@DU?$char_traits@D@std@@@std@@IBEPADXZ 0043d110     msvcprt:MSVCP140.dll
 0004:00000114       __imp_?egptr@?$basic_streambuf@DU?$char_traits@D@std@@@std@@IBEPADXZ 0043d114     msvcprt:MSVCP140.dll
 0004:00000118       __imp_?gbump@?$basic_streambuf@DU?$char_traits@D@std@@@std@@IAEXH@Z 0043d118     msvcprt:MSVCP140.dll
 0004:0000011c       __imp_?setg@?$basic_streambuf@DU?$char_traits@D@std@@@std@@IAEXPAD00@Z 0043d11c     msvcprt:MSVCP140.dll
 0004:00000120       __imp_?epptr@?$basic_streambuf@DU?$char_traits@D@std@@@std@@IBEPADXZ 0043d120     msvcprt:MSVCP140.dll
 0004:00000124       __imp_?_Gndec@?$basic_streambuf@DU?$char_traits@D@std@@@std@@IAEPADXZ 0043d124     msvcprt:MSVCP140.dll
 0004:00000128       __imp_?_Gninc@?$basic_streambuf@DU?$char_traits@D@std@@@std@@IAEPADXZ 0043d128     msvcprt:MSVCP140.dll
 0004:0000012c       __imp_?_Gnavail@?$basic_streambuf@DU?$char_traits@D@std@@@std@@IBE_JXZ 0043d12c     msvcprt:MSVCP140.dll
 0004:00000130       __imp_?pbump@?$basic_streambuf@DU?$char_traits@D@std@@@std@@IAEXH@Z 0043d130     msvcprt:MSVCP140.dll
 0004:00000134       __imp_?_Pninc@?$basic_streambuf@DU?$char_traits@D@std@@@std@@IAEPADXZ 0043d134     msvcprt:MSVCP140.dll
 0004:00000138       __imp_?_Pnavail@?$basic_streambuf@DU?$char_traits@D@std@@@std@@IBE_JXZ 0043d138     msvcprt:MSVCP140.dll
 0004:0000013c       __imp_?_Init@?$basic_streambuf@DU?$char_traits@D@std@@@std@@IAEXXZ 0043d13c     msvcprt:MSVCP140.dll
 0004:00000140       __imp_?_Init@?$basic_streambuf@DU?$char_traits@D@std@@@std@@IAEXPAPAD0PAH001@Z 0043d140     msvcprt:MSVCP140.dll
 0004:00000144       __imp_?xsgetn@?$basic_streambuf@DU?$char_traits@D@std@@@std@@MAE_JPAD_J@Z 0043d144     msvcprt:MSVCP140.dll
 0004:00000148       __imp_?xsputn@?$basic_streambuf@DU?$char_traits@D@std@@@std@@MAE_JPBD_J@Z 0043d148     msvcprt:MSVCP140.dll
 0004:0000014c       __imp_??1?$basic_ios@DU?$char_traits@D@std@@@std@@UAE@XZ 0043d14c     msvcprt:MSVCP140.dll
 0004:00000150       __imp_?clear@?$basic_ios@DU?$char_traits@D@std@@@std@@QAEXH_N@Z 0043d150     msvcprt:MSVCP140.dll
 0004:00000154       __imp_?setstate@?$basic_ios@DU?$char_traits@D@std@@@std@@QAEXH_N@Z 0043d154     msvcprt:MSVCP140.dll
 0004:00000158       __imp_?tie@?$basic_ios@DU?$char_traits@D@std@@@std@@QBEPAV?$basic_ostream@DU?$char_traits@D@std@@@2@XZ 0043d158     msvcprt:MSVCP140.dll
 0004:0000015c       __imp_?rdbuf@?$basic_ios@DU?$char_traits@D@std@@@std@@QBEPAV?$basic_streambuf@DU?$char_traits@D@std@@@2@XZ 0043d15c     msvcprt:MSVCP140.dll
 0004:00000160       __imp_?fill@?$basic_ios@DU?$char_traits@D@std@@@std@@QBEDXZ 0043d160     msvcprt:MSVCP140.dll
 0004:00000164       __imp_??0?$basic_ios@DU?$char_traits@D@std@@@std@@IAE@XZ 0043d164     msvcprt:MSVCP140.dll
 0004:00000168       \177MSVCP140_NULL_THUNK_DATA 0043d168     msvcprt:MSVCP140.dll
 0004:000001c4       __imp__SDL_free            0043d1c4     SDL2:SDL2.dll
 0004:000001c8       __imp__SDL_isspace         0043d1c8     SDL2:SDL2.dll
 0004:000001cc       __imp__SDL_wcslen          0043d1cc     SDL2:SDL2.dll
 0004:000001d0       __imp__SDL_iconv_string    0043d1d0     SDL2:SDL2.dll
 0004:000001d4       __imp__SDL_SetMainReady    0043d1d4     SDL2:SDL2.dll
 0004:000001d8       __imp__SDL_Quit            0043d1d8     SDL2:SDL2.dll
 0004:000001dc       __imp__SDL_Init            0043d1dc     SDL2:SDL2.dll
 0004:000001e0       __imp__SDL_Delay           0043d1e0     SDL2:SDL2.dll
 0004:000001e4       __imp__SDL_GetTicks        0043d1e4     SDL2:SDL2.dll
 0004:000001e8       __imp__SDL_RenderPresent   0043d1e8     SDL2:SDL2.dll
 0004:000001ec       __imp__SDL_RenderCopy      0043d1ec     SDL2:SDL2.dll
 0004:000001f0       __imp__SDL_malloc          0043d1f0     SDL2:SDL2.dll
 0004:000001f4       __imp__SDL_UpdateTexture   0043d1f4     SDL2:SDL2.dll
 0004:000001f8       __imp__SDL_CreateTexture   0043d1f8     SDL2:SDL2.dll
 0004:000001fc       __imp__SDL_CreateRenderer  0043d1fc     SDL2:SDL2.dll
 0004:00000200       __imp__SDL_PollEvent       0043d200     SDL2:SDL2.dll
 0004:00000204       __imp__SDL_CreateWindow    0043d204     SDL2:SDL2.dll
 0004:00000208       __imp__SDL_UpperBlit       0043d208     SDL2:SDL2.dll
 0004:0000020c       __imp__SDL_FillRect        0043d20c     SDL2:SDL2.dll
 0004:00000210       __imp__SDL_UnlockSurface   0043d210     SDL2:SDL2.dll
 0004:00000214       __imp__SDL_ShowSimpleMessageBox 0043d214     SDL2:SDL2.dll
 0004:00000218       __imp__SDL_LockSurface     0043d218     SDL2:SDL2.dll
 0004:0000021c       __imp__SDL_FreeSurface     0043d21c     SDL2:SDL2.dll
 0004:00000220       __imp__SDL_CreateRGBSurface 0043d220     SDL2:SDL2.dll
 0004:00000224       __imp__SDL_GetError        0043d224     SDL2:SDL2.dll
 0004:00000228       \177SDL2_NULL_THUNK_DATA   0043d228     SDL2:SDL2.dll
 0004:00000268       __imp__IMG_Load            0043d268     SDL2_image:SDL2_image.dll
 0004:0000026c       \177SDL2_image_NULL_THUNK_DATA 0043d26c     SDL2_image:SDL2_image.dll
 0004:00000298       __imp__TTF_CloseFont       0043d298     SDL2_ttf:SDL2_ttf.dll
 0004:0000029c       __imp__TTF_Init            0043d29c     SDL2_ttf:SDL2_ttf.dll
 0004:000002a0       __imp__TTF_Quit            0043d2a0     SDL2_ttf:SDL2_ttf.dll
 0004:000002a4       __imp__TTF_RenderText_Solid 0043d2a4     SDL2_ttf:SDL2_ttf.dll
 0004:000002a8       __imp__TTF_OpenFont        0043d2a8     SDL2_ttf:SDL2_ttf.dll
 0004:000002ac       \177SDL2_ttf_NULL_THUNK_DATA 0043d2ac     SDL2_ttf:SDL2_ttf.dll
 0004:000002dc       __imp____std_type_info_destroy_list 0043d2dc     vcruntime:VCRUNTIME140.dll
 0004:000002e0       __imp___except_handler4_common 0043d2e0     vcruntime:VCRUNTIME140.dll
 0004:000002e4       __imp____CxxFrameHandler3  0043d2e4     vcruntime:VCRUNTIME140.dll
 0004:000002e8       __imp__memcpy              0043d2e8     vcruntime:VCRUNTIME140.dll
 0004:000002ec       __imp__memmove             0043d2ec     vcruntime:VCRUNTIME140.dll
 0004:000002f0       __imp__memset              0043d2f0     vcruntime:VCRUNTIME140.dll
 0004:000002f4       __imp___CxxThrowException@8 0043d2f4     vcruntime:VCRUNTIME140.dll
 0004:000002f8       __imp____RTDynamicCast     0043d2f8     vcruntime:VCRUNTIME140.dll
 0004:000002fc       __imp____std_exception_copy 0043d2fc     vcruntime:VCRUNTIME140.dll
 0004:00000300       __imp____std_exception_destroy 0043d300     vcruntime:VCRUNTIME140.dll
 0004:00000304       \177VCRUNTIME140_NULL_THUNK_DATA 0043d304     vcruntime:VCRUNTIME140.dll
 0004:00000338       __imp___lock_file          0043d338     ucrt:api-ms-win-crt-filesystem-l1-1-0.dll
 0004:0000033c       __imp___unlock_file        0043d33c     ucrt:api-ms-win-crt-filesystem-l1-1-0.dll
 0004:00000340       \177api-ms-win-crt-filesystem-l1-1-0_NULL_THUNK_DATA 0043d340     ucrt:api-ms-win-crt-filesystem-l1-1-0.dll
 0004:0000036c       __imp__malloc              0043d36c     ucrt:api-ms-win-crt-heap-l1-1-0.dll
 0004:00000370       __imp__free                0043d370     ucrt:api-ms-win-crt-heap-l1-1-0.dll
 0004:00000374       __imp___callnewh           0043d374     ucrt:api-ms-win-crt-heap-l1-1-0.dll
 0004:00000378       __imp___set_new_mode       0043d378     ucrt:api-ms-win-crt-heap-l1-1-0.dll
 0004:0000037c       \177api-ms-win-crt-heap-l1-1-0_NULL_THUNK_DATA 0043d37c     ucrt:api-ms-win-crt-heap-l1-1-0.dll
 0004:000003a8       __imp___configthreadlocale 0043d3a8     ucrt:api-ms-win-crt-locale-l1-1-0.dll
 0004:000003ac       \177api-ms-win-crt-locale-l1-1-0_NULL_THUNK_DATA 0043d3ac     ucrt:api-ms-win-crt-locale-l1-1-0.dll
 0004:000003d8       __imp__sqrt                0043d3d8     ucrt:api-ms-win-crt-math-l1-1-0.dll
 0004:000003dc       __imp__floor               0043d3dc     ucrt:api-ms-win-crt-math-l1-1-0.dll
 0004:000003e0       __imp__sin                 0043d3e0     ucrt:api-ms-win-crt-math-l1-1-0.dll
 0004:000003e4       __imp__roundf              0043d3e4     ucrt:api-ms-win-crt-math-l1-1-0.dll
 0004:000003e8       __imp__cos                 0043d3e8     ucrt:api-ms-win-crt-math-l1-1-0.dll
 0004:000003ec       __imp__atan                0043d3ec     ucrt:api-ms-win-crt-math-l1-1-0.dll
 0004:000003f0       __imp____setusermatherr    0043d3f0     ucrt:api-ms-win-crt-math-l1-1-0.dll
 0004:000003f4       __imp__ceil                0043d3f4     ucrt:api-ms-win-crt-math-l1-1-0.dll
 0004:000003f8       __imp__pow                 0043d3f8     ucrt:api-ms-win-crt-math-l1-1-0.dll
 0004:000003fc       __imp__fabs                0043d3fc     ucrt:api-ms-win-crt-math-l1-1-0.dll
 0004:00000400       __imp__round               0043d400     ucrt:api-ms-win-crt-math-l1-1-0.dll
 0004:00000404       \177api-ms-win-crt-math-l1-1-0_NULL_THUNK_DATA 0043d404     ucrt:api-ms-win-crt-math-l1-1-0.dll
 0004:00000438       __imp__exit                0043d438     ucrt:api-ms-win-crt-runtime-l1-1-0.dll
 0004:0000043c       __imp___exit               0043d43c     ucrt:api-ms-win-crt-runtime-l1-1-0.dll
 0004:00000440       __imp___invalid_parameter_noinfo_noreturn 0043d440     ucrt:api-ms-win-crt-runtime-l1-1-0.dll
 0004:00000444       __imp____p___argc          0043d444     ucrt:api-ms-win-crt-runtime-l1-1-0.dll
 0004:00000448       __imp____p___argv          0043d448     ucrt:api-ms-win-crt-runtime-l1-1-0.dll
 0004:0000044c       __imp___initterm           0043d44c     ucrt:api-ms-win-crt-runtime-l1-1-0.dll
 0004:00000450       __imp___c_exit             0043d450     ucrt:api-ms-win-crt-runtime-l1-1-0.dll
 0004:00000454       __imp___register_thread_local_exe_atexit_callback 0043d454     ucrt:api-ms-win-crt-runtime-l1-1-0.dll
 0004:00000458       __imp___get_initial_narrow_environment 0043d458     ucrt:api-ms-win-crt-runtime-l1-1-0.dll
 0004:0000045c       __imp___initialize_narrow_environment 0043d45c     ucrt:api-ms-win-crt-runtime-l1-1-0.dll
 0004:00000460       __imp___cexit              0043d460     ucrt:api-ms-win-crt-runtime-l1-1-0.dll
 0004:00000464       __imp___configure_narrow_argv 0043d464     ucrt:api-ms-win-crt-runtime-l1-1-0.dll
 0004:00000468       __imp___set_app_type       0043d468     ucrt:api-ms-win-crt-runtime-l1-1-0.dll
 0004:0000046c       __imp___seh_filter_dll     0043d46c     ucrt:api-ms-win-crt-runtime-l1-1-0.dll
 0004:00000470       __imp___initialize_onexit_table 0043d470     ucrt:api-ms-win-crt-runtime-l1-1-0.dll
 0004:00000474       __imp___register_onexit_function 0043d474     ucrt:api-ms-win-crt-runtime-l1-1-0.dll
 0004:00000478       __imp___execute_onexit_table 0043d478     ucrt:api-ms-win-crt-runtime-l1-1-0.dll
 0004:0000047c       __imp___crt_atexit         0043d47c     ucrt:api-ms-win-crt-runtime-l1-1-0.dll
 0004:00000480       __imp___crt_at_quick_exit  0043d480     ucrt:api-ms-win-crt-runtime-l1-1-0.dll
 0004:00000484       __imp___controlfp_s        0043d484     ucrt:api-ms-win-crt-runtime-l1-1-0.dll
 0004:00000488       __imp__terminate           0043d488     ucrt:api-ms-win-crt-runtime-l1-1-0.dll
 0004:0000048c       __imp___seh_filter_exe     0043d48c     ucrt:api-ms-win-crt-runtime-l1-1-0.dll
 0004:00000490       __imp___initterm_e         0043d490     ucrt:api-ms-win-crt-runtime-l1-1-0.dll
 0004:00000494       __imp___wassert            0043d494     ucrt:api-ms-win-crt-runtime-l1-1-0.dll
 0004:00000498       \177api-ms-win-crt-runtime-l1-1-0_NULL_THUNK_DATA 0043d498     ucrt:api-ms-win-crt-runtime-l1-1-0.dll
 0004:000004d4       __imp__fwrite              0043d4d4     ucrt:api-ms-win-crt-stdio-l1-1-0.dll
 0004:000004d8       __imp____p__commode        0043d4d8     ucrt:api-ms-win-crt-stdio-l1-1-0.dll
 0004:000004dc       __imp___set_fmode          0043d4dc     ucrt:api-ms-win-crt-stdio-l1-1-0.dll
 0004:000004e0       __imp____acrt_iob_func     0043d4e0     ucrt:api-ms-win-crt-stdio-l1-1-0.dll
 0004:000004e4       __imp____stdio_common_vfprintf 0043d4e4     ucrt:api-ms-win-crt-stdio-l1-1-0.dll
 0004:000004e8       __imp____stdio_common_vsprintf 0043d4e8     ucrt:api-ms-win-crt-stdio-l1-1-0.dll
 0004:000004ec       __imp___get_stream_buffer_pointers 0043d4ec     ucrt:api-ms-win-crt-stdio-l1-1-0.dll
 0004:000004f0       __imp__fclose              0043d4f0     ucrt:api-ms-win-crt-stdio-l1-1-0.dll
 0004:000004f4       __imp__fflush              0043d4f4     ucrt:api-ms-win-crt-stdio-l1-1-0.dll
 0004:000004f8       __imp__fgetc               0043d4f8     ucrt:api-ms-win-crt-stdio-l1-1-0.dll
 0004:000004fc       __imp__fgetpos             0043d4fc     ucrt:api-ms-win-crt-stdio-l1-1-0.dll
 0004:00000500       __imp__ungetc              0043d500     ucrt:api-ms-win-crt-stdio-l1-1-0.dll
 0004:00000504       __imp__setvbuf             0043d504     ucrt:api-ms-win-crt-stdio-l1-1-0.dll
 0004:00000508       __imp__fread               0043d508     ucrt:api-ms-win-crt-stdio-l1-1-0.dll
 0004:0000050c       __imp___fseeki64           0043d50c     ucrt:api-ms-win-crt-stdio-l1-1-0.dll
 0004:00000510       __imp__fsetpos             0043d510     ucrt:api-ms-win-crt-stdio-l1-1-0.dll
 0004:00000514       __imp__fputc               0043d514     ucrt:api-ms-win-crt-stdio-l1-1-0.dll
 0004:00000518       \177api-ms-win-crt-stdio-l1-1-0_NULL_THUNK_DATA 0043d518     ucrt:api-ms-win-crt-stdio-l1-1-0.dll
 0004:00000550       __imp__strlen              0043d550     ucrt:api-ms-win-crt-string-l1-1-0.dll
 0004:00000554       __imp__strcmp              0043d554     ucrt:api-ms-win-crt-string-l1-1-0.dll
 0004:00000558       __imp__strcpy              0043d558     ucrt:api-ms-win-crt-string-l1-1-0.dll
 0004:0000055c       \177api-ms-win-crt-string-l1-1-0_NULL_THUNK_DATA 0043d55c     ucrt:api-ms-win-crt-string-l1-1-0.dll
 0004:00000588       __imp___time64             0043d588     ucrt:api-ms-win-crt-time-l1-1-0.dll
 0004:0000058c       \177api-ms-win-crt-time-l1-1-0_NULL_THUNK_DATA 0043d58c     ucrt:api-ms-win-crt-time-l1-1-0.dll
 0004:000005b8       __imp__rand                0043d5b8     ucrt:api-ms-win-crt-utility-l1-1-0.dll
 0004:000005bc       __imp__abs                 0043d5bc     ucrt:api-ms-win-crt-utility-l1-1-0.dll
 0004:000005c0       __imp__srand               0043d5c0     ucrt:api-ms-win-crt-utility-l1-1-0.dll
 0004:000005c4       \177api-ms-win-crt-utility-l1-1-0_NULL_THUNK_DATA 0043d5c4     ucrt:api-ms-win-crt-utility-l1-1-0.dll
 0004:000005f0       __IMPORT_DESCRIPTOR_SDL2   0043d5f0     SDL2:SDL2.dll
 0004:00000604       __IMPORT_DESCRIPTOR_SDL2_image 0043d604     SDL2_image:SDL2_image.dll
 0004:00000618       __IMPORT_DESCRIPTOR_SDL2_ttf 0043d618     SDL2_ttf:SDL2_ttf.dll
 0004:0000062c       __IMPORT_DESCRIPTOR_MSVCP140 0043d62c     msvcprt:MSVCP140.dll
 0004:00000640       __IMPORT_DESCRIPTOR_VCRUNTIME140 0043d640     vcruntime:VCRUNTIME140.dll
 0004:00000654       __IMPORT_DESCRIPTOR_api-ms-win-crt-math-l1-1-0 0043d654     ucrt:api-ms-win-crt-math-l1-1-0.dll
 0004:00000668       __IMPORT_DESCRIPTOR_api-ms-win-crt-runtime-l1-1-0 0043d668     ucrt:api-ms-win-crt-runtime-l1-1-0.dll
 0004:0000067c       __IMPORT_DESCRIPTOR_api-ms-win-crt-stdio-l1-1-0 0043d67c     ucrt:api-ms-win-crt-stdio-l1-1-0.dll
 0004:00000690       __IMPORT_DESCRIPTOR_api-ms-win-crt-filesystem-l1-1-0 0043d690     ucrt:api-ms-win-crt-filesystem-l1-1-0.dll
 0004:000006a4       __IMPORT_DESCRIPTOR_api-ms-win-crt-string-l1-1-0 0043d6a4     ucrt:api-ms-win-crt-string-l1-1-0.dll
 0004:000006b8       __IMPORT_DESCRIPTOR_api-ms-win-crt-utility-l1-1-0 0043d6b8     ucrt:api-ms-win-crt-utility-l1-1-0.dll
 0004:000006cc       __IMPORT_DESCRIPTOR_api-ms-win-crt-time-l1-1-0 0043d6cc     ucrt:api-ms-win-crt-time-l1-1-0.dll
 0004:000006e0       __IMPORT_DESCRIPTOR_api-ms-win-crt-locale-l1-1-0 0043d6e0     ucrt:api-ms-win-crt-locale-l1-1-0.dll
 0004:000006f4       __IMPORT_DESCRIPTOR_api-ms-win-crt-heap-l1-1-0 0043d6f4     ucrt:api-ms-win-crt-heap-l1-1-0.dll
 0004:00000708       __IMPORT_DESCRIPTOR_KERNEL32 0043d708     kernel32:KERNEL32.dll
 0004:0000071c       __NULL_IMPORT_DESCRIPTOR   0043d71c     SDL2:SDL2.dll
 0005:00000000       ___guard_check_icall_fptr  00440000     MSVCRT:guard_support.obj

 entry point at        0001:000016fd

 Static symbols

 0000:fffbe000       .debug$S                   00400000     SDL2_ttf:SDL2_ttf.dll
 0000:fffbe000       .debug$S                   00400000     SDL2:SDL2.dll
 0000:fffbe000       .debug$S                   00400000     SDL2:SDL2.dll
 0000:fffbe000       .debug$S                   00400000     SDL2:SDL2.dll
 0000:fffbe000       .debug$S                   00400000     SDL2:SDL2.dll
 0000:fffbe000       .debug$S                   00400000     SDL2:SDL2.dll
 0000:fffbe000       .debug$S                   00400000     SDL2:SDL2.dll
 0000:fffbe000       .debug$S                   00400000     SDL2:SDL2.dll
 0001:fffff000       __ehhandler$??$_Emplace_reallocate@ABH@?$vector@HV?$allocator@H@std@@@std@@QAEPAHQAHABH@Z 00400000 f   ProjectileCannonFrag.obj
 0000:fffbe000       .debug$S                   00400000     kernel32:KERNEL32.dll
 0000:fffbe000       .debug$S                   00400000     kernel32:KERNEL32.dll
 0000:fffbe000       .debug$S                   00400000     kernel32:KERNEL32.dll
 0000:fffbe000       .debug$S                   00400000     kernel32:KERNEL32.dll
 0000:fffbe000       .debug$S                   00400000     kernel32:KERNEL32.dll
 0000:fffbe000       .debug$S                   00400000     kernel32:KERNEL32.dll
 0000:fffbe000       .debug$S                   00400000     kernel32:KERNEL32.dll
 0000:fffbe000       .debug$S                   00400000     kernel32:KERNEL32.dll
 0000:fffbe000       .debug$S                   00400000     kernel32:KERNEL32.dll
 0000:fffbe000       .debug$S                   00400000     kernel32:KERNEL32.dll
 0000:fffbe000       .debug$S                   00400000     kernel32:KERNEL32.dll
 0000:fffbe000       .debug$S                   00400000     kernel32:KERNEL32.dll
 0000:fffbe000       .debug$S                   00400000     kernel32:KERNEL32.dll
 0000:fffbe000       .debug$S                   00400000     kernel32:KERNEL32.dll
 0002:fffca000       __ehfuncinfo$??0?$vector@HV?$allocator@H@std@@@std@@QAE@XZ 00400000     ProjectileCannonFrag.obj
 0002:fffca000       __catchsym$??0?$vector@HV?$allocator@H@std@@@std@@QAE@ABV01@@Z$2 00400000     ProjectileCannonFrag.obj
 0002:fffca000       __ehfuncinfo$??1?$vector@HV?$allocator@H@std@@@std@@QAE@XZ 00400000     ProjectileCannonFrag.obj
 0002:fffca000       __catchsym$??$_Emplace_reallocate@ABH@?$vector@HV?$allocator@H@std@@@std@@QAEPAHQAHABH@Z$2 00400000     ProjectileCannonFrag.obj
 0001:fffff000       __ehhandler$??0?$vector@HV?$allocator@H@std@@@std@@QAE@XZ 00400000 f   ProjectileSniper.obj
 0001:fffff000       __ehhandler$??1?$vector@HV?$allocator@H@std@@@std@@QAE@XZ 00400000 f   ProjectileSniper.obj
 0001:fffff000       __ehhandler$??$_Emplace_reallocate@ABH@?$vector@HV?$allocator@H@std@@@std@@QAEPAHQAHABH@Z 00400000 f   ProjectileSniper.obj
 0002:fffca000       __ehfuncinfo$??0?$vector@HV?$allocator@H@std@@@std@@QAE@XZ 00400000     ProjectileSniper.obj
 0002:fffca000       __ehfuncinfo$??1?$vector@HV?$allocator@H@std@@@std@@QAE@XZ 00400000     ProjectileSniper.obj
 0002:fffca000       __catchsym$??$_Emplace_reallocate@ABH@?$vector@HV?$allocator@H@std@@@std@@QAEPAHQAHABH@Z$2 00400000     ProjectileSniper.obj
 0001:fffff000       __ehhandler$??0?$vector@HV?$allocator@H@std@@@std@@QAE@ABV01@@Z 00400000 f   ProjectileCannonFrag.obj
 0000:fffbe000       .debug$S                   00400000     ucrt:api-ms-win-crt-heap-l1-1-0.dll
 0000:fffbe000       .debug$S                   00400000     ucrt:api-ms-win-crt-runtime-l1-1-0.dll
 0000:fffbe000       .debug$S                   00400000     ucrt:api-ms-win-crt-runtime-l1-1-0.dll
 0000:fffbe000       .debug$S                   00400000     ucrt:api-ms-win-crt-runtime-l1-1-0.dll
 0000:fffbe000       .debug$S                   00400000     ucrt:api-ms-win-crt-runtime-l1-1-0.dll
 0000:fffbe000       .debug$S                   00400000     ucrt:api-ms-win-crt-runtime-l1-1-0.dll
 0000:fffbe000       .debug$S                   00400000     ucrt:api-ms-win-crt-runtime-l1-1-0.dll
 0000:fffbe000       .debug$S                   00400000     ucrt:api-ms-win-crt-runtime-l1-1-0.dll
 0000:fffbe000       .debug$S                   00400000     ucrt:api-ms-win-crt-runtime-l1-1-0.dll
 0000:fffbe000       .debug$S                   00400000     ucrt:api-ms-win-crt-heap-l1-1-0.dll
 0000:fffbe000       .debug$S                   00400000     ucrt:api-ms-win-crt-heap-l1-1-0.dll
 0000:fffbe000       .debug$S                   00400000     ucrt:api-ms-win-crt-stdio-l1-1-0.dll
 0000:fffbe000       .debug$S                   00400000     ucrt:api-ms-win-crt-heap-l1-1-0.dll
 0000:fffbe000       .debug$S                   00400000     ucrt:api-ms-win-crt-locale-l1-1-0.dll
 0000:fffbe000       .debug$S                   00400000     ucrt:api-ms-win-crt-runtime-l1-1-0.dll
 0000:fffbe000       .debug$S                   00400000     ucrt:api-ms-win-crt-runtime-l1-1-0.dll
 0000:fffbe000       .debug$S                   00400000     ucrt:api-ms-win-crt-runtime-l1-1-0.dll
 0000:fffbe000       .debug$S                   00400000     ucrt:api-ms-win-crt-runtime-l1-1-0.dll
 0000:fffbe000       .debug$S                   00400000     ucrt:api-ms-win-crt-runtime-l1-1-0.dll
 0000:fffbe000       .debug$S                   00400000     ucrt:api-ms-win-crt-stdio-l1-1-0.dll
 0000:fffbe000       .debug$S                   00400000     ucrt:api-ms-win-crt-runtime-l1-1-0.dll
 0000:fffbe000       .debug$S                   00400000     ucrt:api-ms-win-crt-runtime-l1-1-0.dll
 0000:fffbe000       .debug$S                   00400000     ucrt:api-ms-win-crt-runtime-l1-1-0.dll
 0000:fffbe000       .debug$S                   00400000     ucrt:api-ms-win-crt-runtime-l1-1-0.dll
 0000:fffbe000       .debug$S                   00400000     ucrt:api-ms-win-crt-runtime-l1-1-0.dll
 0000:fffbe000       .debug$S                   00400000     ucrt:api-ms-win-crt-runtime-l1-1-0.dll
 0000:fffbe000       .debug$S                   00400000     ucrt:api-ms-win-crt-runtime-l1-1-0.dll
 0000:fffbe000       .debug$S                   00400000     ucrt:api-ms-win-crt-math-l1-1-0.dll
 0000:fffbe000       .debug$S                   00400000     ucrt:api-ms-win-crt-runtime-l1-1-0.dll
 0000:fffbe000       .debug$S                   00400000     ucrt:api-ms-win-crt-runtime-l1-1-0.dll
 0000:fffbe000       .debug$S                   00400000     ucrt:api-ms-win-crt-math-l1-1-0.dll
 0000:fffbe000       .debug$S                   00400000     ucrt:api-ms-win-crt-runtime-l1-1-0.dll
 0000:fffbe000       .debug$S                   00400000     ucrt:api-ms-win-crt-utility-l1-1-0.dll
 0000:fffbe000       .debug$S                   00400000     ucrt:api-ms-win-crt-math-l1-1-0.dll
 0000:fffbe000       .debug$S                   00400000     ucrt:api-ms-win-crt-math-l1-1-0.dll
 0000:fffbe000       .debug$S                   00400000     ucrt:api-ms-win-crt-utility-l1-1-0.dll
 0000:fffbe000       .debug$S                   00400000     ucrt:api-ms-win-crt-string-l1-1-0.dll
 0000:fffbe000       .debug$S                   00400000     ucrt:api-ms-win-crt-math-l1-1-0.dll
 0000:fffbe000       .debug$S                   00400000     ucrt:api-ms-win-crt-math-l1-1-0.dll
 0000:fffbe000       .debug$S                   00400000     ucrt:api-ms-win-crt-math-l1-1-0.dll
 0000:fffbe000       .debug$S                   00400000     ucrt:api-ms-win-crt-time-l1-1-0.dll
 0000:fffbe000       .debug$S                   00400000     ucrt:api-ms-win-crt-utility-l1-1-0.dll
 0000:fffbe000       .debug$S                   00400000     ucrt:api-ms-win-crt-string-l1-1-0.dll
 0000:fffbe000       .debug$S                   00400000     ucrt:api-ms-win-crt-string-l1-1-0.dll
 0000:fffbe000       .debug$S                   00400000     ucrt:api-ms-win-crt-filesystem-l1-1-0.dll
 0000:fffbe000       .debug$S                   00400000     ucrt:api-ms-win-crt-filesystem-l1-1-0.dll
 0000:fffbe000       .debug$S                   00400000     ucrt:api-ms-win-crt-stdio-l1-1-0.dll
 0000:fffbe000       .debug$S                   00400000     ucrt:api-ms-win-crt-stdio-l1-1-0.dll
 0000:fffbe000       .debug$S                   00400000     ucrt:api-ms-win-crt-stdio-l1-1-0.dll
 0000:fffbe000       .debug$S                   00400000     ucrt:api-ms-win-crt-stdio-l1-1-0.dll
 0000:fffbe000       .debug$S                   00400000     ucrt:api-ms-win-crt-stdio-l1-1-0.dll
 0000:fffbe000       .debug$S                   00400000     ucrt:api-ms-win-crt-stdio-l1-1-0.dll
 0000:fffbe000       .debug$S                   00400000     ucrt:api-ms-win-crt-stdio-l1-1-0.dll
 0000:fffbe000       .debug$S                   00400000     ucrt:api-ms-win-crt-stdio-l1-1-0.dll
 0000:fffbe000       .debug$S                   00400000     ucrt:api-ms-win-crt-stdio-l1-1-0.dll
 0000:fffbe000       .debug$S                   00400000     ucrt:api-ms-win-crt-stdio-l1-1-0.dll
 0000:fffbe000       .debug$S                   00400000     ucrt:api-ms-win-crt-stdio-l1-1-0.dll
 0000:fffbe000       .debug$S                   00400000     ucrt:api-ms-win-crt-stdio-l1-1-0.dll
 0000:fffbe000       .debug$S                   00400000     ucrt:api-ms-win-crt-stdio-l1-1-0.dll
 0000:fffbe000       .debug$S                   00400000     ucrt:api-ms-win-crt-stdio-l1-1-0.dll
 0000:fffbe000       .debug$S                   00400000     ucrt:api-ms-win-crt-stdio-l1-1-0.dll
 0000:fffbe000       .debug$S                   00400000     ucrt:api-ms-win-crt-math-l1-1-0.dll
 0000:fffbe000       .debug$S                   00400000     ucrt:api-ms-win-crt-runtime-l1-1-0.dll
 0000:fffbe000       .debug$S                   00400000     ucrt:api-ms-win-crt-math-l1-1-0.dll
 0000:fffbe000       .debug$S                   00400000     ucrt:api-ms-win-crt-math-l1-1-0.dll
 0000:fffbe000       .debug$S                   00400000     ucrt:api-ms-win-crt-math-l1-1-0.dll
 0001:fffff000       __ehhandler$??0?$vector@HV?$allocator@H@std@@@std@@QAE@XZ 00400000 f   ProjectileCannonFrag.obj
 0000:fffbe000       .debug$S                   00400000     vcruntime:VCRUNTIME140.dll
 0000:fffbe000       .debug$S                   00400000     vcruntime:VCRUNTIME140.dll
 0000:fffbe000       .debug$S                   00400000     vcruntime:VCRUNTIME140.dll
 0000:fffbe000       .debug$S                   00400000     vcruntime:VCRUNTIME140.dll
 0000:fffbe000       .debug$S                   00400000     vcruntime:VCRUNTIME140.dll
 0000:fffbe000       .debug$S                   00400000     vcruntime:VCRUNTIME140.dll
 0000:fffbe000       .debug$S                   00400000     vcruntime:VCRUNTIME140.dll
 0000:fffbe000       .debug$S                   00400000     vcruntime:VCRUNTIME140.dll
 0000:fffbe000       .debug$S                   00400000     vcruntime:VCRUNTIME140.dll
 0000:fffbe000       .debug$S                   00400000     vcruntime:VCRUNTIME140.dll
 0000:fffc0000       __guard_fids__             00400000     MSVCRT:throw_bad_alloc.obj
 0000:fffc0000       __guard_fids__             00400000     MSVCRT:throw_bad_alloc.obj
 0000:fffc0000       __guard_fids__             00400000     MSVCRT:throw_bad_alloc.obj
 0000:fffc0000       __guard_fids__             00400000     MSVCRT:throw_bad_alloc.obj
 0000:fffc0000       __guard_fids__             00400000     MSVCRT:throw_bad_alloc.obj
 0000:fffc0000       __guard_fids__             00400000     MSVCRT:throw_bad_alloc.obj
 0000:fffc0000       __guard_fids__             00400000     MSVCRT:throw_bad_alloc.obj
 0000:fffc0000       __guard_fids__             00400000     MSVCRT:throw_bad_alloc.obj
 0002:fffca000       __catchsym$??$_Emplace_reallocate@ABH@?$vector@HV?$allocator@H@std@@@std@@QAEPAHQAHABH@Z$2 00400000     ProjectileCannon.obj
 0002:fffca000       __ehfuncinfo$??1?$vector@HV?$allocator@H@std@@@std@@QAE@XZ 00400000     ProjectileCannon.obj
 0002:fffca000       __ehfuncinfo$??0?$vector@HV?$allocator@H@std@@@std@@QAE@XZ 00400000     ProjectileCannon.obj
 0000:fffc0000       __guard_fids___except_handler4 00400000     MSVCRT:chandler4gs.obj
 0001:fffff000       __ehhandler$??$_Emplace_reallocate@ABH@?$vector@HV?$allocator@H@std@@@std@@QAEPAHQAHABH@Z 00400000 f   ProjectileCannon.obj
 0000:fffc0000       __guard_fids____scrt_set_unhandled_exception_filter 00400000     MSVCRT:utility_desktop.obj
 0001:fffff000       __ehhandler$??1?$vector@HV?$allocator@H@std@@@std@@QAE@XZ 00400000 f   ProjectileCannon.obj
 0000:fffc0000       __guard_fids___guard_icall_checks_enforced 00400000     MSVCRT:guard_support.obj
 0000:fffc0000       __guard_fids__             00400000     MSVCRT:guard_support.obj
 0001:fffff000       __ehhandler$??0?$vector@HV?$allocator@H@std@@@std@@QAE@XZ 00400000 f   ProjectileCannon.obj
 0002:fffca000       __ehfuncinfo$??1?$_Uninitialized_backout_al@PAUhighscorePair@GameState@@V?$allocator@UhighscorePair@GameState@@@std@@@std@@QAE@XZ 00400000     HighscoresState.obj
 0002:fffca000       __unwindtable$??$_Uninitialized_move_al_unchecked@PAUhighscorePair@GameState@@PAU12@V?$allocator@UhighscorePair@GameState@@@std@@@std@@YAPAUhighscorePair@GameState@@PAU12@QAU12@1AAV?$allocator@UhighscorePair@GameState@@@0@U_General_ptr_iterator_tag@0@U_Unused_parameter@0@@Z 00400000     HighscoresState.obj
 0002:fffca000       __unwindtable$??0sentry@?$basic_istream@DU?$char_traits@D@std@@@std@@QAE@AAV12@_N@Z 00400000     HighscoresState.obj
 0002:fffca000       __ehfuncinfo$??1_Sentry_base@?$basic_istream@DU?$char_traits@D@std@@@std@@QAE@XZ 00400000     HighscoresState.obj
 0002:fffca000       __ehfuncinfo$??$?0U?$default_delete@V_Facet_base@std@@@std@@$0A@@?$unique_ptr@V_Facet_base@std@@U?$default_delete@V_Facet_base@std@@@2@@std@@QAE@PAV_Facet_base@1@@Z 00400000     HighscoresState.obj
 0002:fffca000       __unwindtable$??$use_facet@V?$codecvt@DDU_Mbstatet@@@std@@@std@@YAABV?$codecvt@DDU_Mbstatet@@@0@ABVlocale@0@@Z 00400000     HighscoresState.obj
 0002:fffca000       __catchsym$??$_Emplace_reallocate@ABUhighscorePair@GameState@@@?$vector@UhighscorePair@GameState@@V?$allocator@UhighscorePair@GameState@@@std@@@std@@QAEPAUhighscorePair@GameState@@QAU23@ABU23@@Z$2 00400000     HighscoresState.obj
 0000:fffc0000       __guard_fids__             00400000     MSVCRT:std_type_info_static.obj
 0002:fffca000       __catchsym$??$?5DU?$char_traits@D@std@@@std@@YAAAV?$basic_istream@DU?$char_traits@D@std@@@0@AAV10@PAD@Z$4 00400000     HighscoresState.obj
 0000:fffc0000       __guard_fids_?pre_c_initialization@@YAHXZ 00400000     MSVCRT:exe_main.obj
 0002:fffca000       __unwindtable$?uflow@?$basic_filebuf@DU?$char_traits@D@std@@@std@@MAEHXZ 00400000     HighscoresState.obj
 0002:fffca000       __unwindtable$?open@?$basic_filebuf@DU?$char_traits@D@std@@@std@@QAEPAV12@PBDHH@Z 00400000     HighscoresState.obj
 0002:fffca000       __ehfuncinfo$??1?$basic_filebuf@DU?$char_traits@D@std@@@std@@UAE@XZ 00400000     HighscoresState.obj
 0002:fffca000       __unwindtable$??0?$basic_filebuf@DU?$char_traits@D@std@@@std@@QAE@PAU_iobuf@@@Z 00400000     HighscoresState.obj
 0002:fffca000       __unwindtable$??0?$basic_ifstream@DU?$char_traits@D@std@@@std@@QAE@PBDHH@Z 00400000     HighscoresState.obj
 0000:fffc0000       __guard_fids__             00400000     MSVCRT:exe_main.obj
 0002:fffca000       __ehfuncinfo$??1?$vector@UhighscorePair@GameState@@V?$allocator@UhighscorePair@GameState@@@std@@@std@@QAE@XZ 00400000     HighscoresState.obj
 0002:fffca000       __ehfuncinfo$??4?$vector@UhighscorePair@GameState@@V?$allocator@UhighscorePair@GameState@@@std@@@std@@QAEAAV01@$$QAV01@@Z 00400000     HighscoresState.obj
 0002:fffca000       __ehfuncinfo$??0?$vector@UhighscorePair@GameState@@V?$allocator@UhighscorePair@GameState@@@std@@@std@@QAE@$$QAV01@@Z 00400000     HighscoresState.obj
 0002:fffca000       __ehfuncinfo$?_Move_from@?$vector@UhighscorePair@GameState@@V?$allocator@UhighscorePair@GameState@@@std@@@std@@AAEX$$QAV12@U?$integral_constant@_N$00@2@@Z 00400000     HighscoresState.obj
 0002:fffca000       __ehfuncinfo$??0?$vector@UhighscorePair@GameState@@V?$allocator@UhighscorePair@GameState@@@std@@@std@@QAE@XZ 00400000     HighscoresState.obj
 0002:fffca000       __unwindtable$?readInHighscores@GameState@@QAE?AV?$vector@UhighscorePair@GameState@@V?$allocator@UhighscorePair@GameState@@@std@@@std@@XZ 00400000     HighscoresState.obj
 0002:fffca000       __unwindtable$??$use_facet@V?$ctype@D@std@@@std@@YAABV?$ctype@D@0@ABVlocale@0@@Z 00400000     HighscoresState.obj
 0000:fffbe000       .debug$S                   00400000     msvcprt:MSVCP140.dll
 0000:fffbe000       .debug$S                   00400000     msvcprt:MSVCP140.dll
 0000:fffbe000       .debug$S                   00400000     msvcprt:MSVCP140.dll
 0000:fffbe000       .debug$S                   00400000     msvcprt:MSVCP140.dll
 0000:fffbe000       .debug$S                   00400000     msvcprt:MSVCP140.dll
 0000:fffbe000       .debug$S                   00400000     msvcprt:MSVCP140.dll
 0000:fffbe000       .debug$S                   00400000     msvcprt:MSVCP140.dll
 0000:fffbe000       .debug$S                   00400000     msvcprt:MSVCP140.dll
 0000:fffbe000       .debug$S                   00400000     msvcprt:MSVCP140.dll
 0000:fffbe000       .debug$S                   00400000     msvcprt:MSVCP140.dll
 0000:fffbe000       .debug$S                   00400000     msvcprt:MSVCP140.dll
 0000:fffbe000       .debug$S                   00400000     msvcprt:MSVCP140.dll
 0000:fffbe000       .debug$S                   00400000     msvcprt:MSVCP140.dll
 0000:fffbe000       .debug$S                   00400000     msvcprt:MSVCP140.dll
 0000:fffbe000       .debug$S                   00400000     msvcprt:MSVCP140.dll
 0000:fffbe000       .debug$S                   00400000     msvcprt:MSVCP140.dll
 0000:fffbe000       .debug$S                   00400000     msvcprt:MSVCP140.dll
 0000:fffbe000       .debug$S                   00400000     msvcprt:MSVCP140.dll
 0000:fffbe000       .debug$S                   00400000     msvcprt:MSVCP140.dll
 0000:fffbe000       .debug$S                   00400000     msvcprt:MSVCP140.dll
 0000:fffbe000       .debug$S                   00400000     msvcprt:MSVCP140.dll
 0000:fffbe000       .debug$S                   00400000     msvcprt:MSVCP140.dll
 0000:fffbe000       .debug$S                   00400000     msvcprt:MSVCP140.dll
 0000:fffbe000       .debug$S                   00400000     msvcprt:MSVCP140.dll
 0000:fffbe000       .debug$S                   00400000     msvcprt:MSVCP140.dll
 0000:fffbe000       .debug$S                   00400000     msvcprt:MSVCP140.dll
 0000:fffbe000       .debug$S                   00400000     msvcprt:MSVCP140.dll
 0000:fffbe000       .debug$S                   00400000     msvcprt:MSVCP140.dll
 0000:fffbe000       .debug$S                   00400000     msvcprt:MSVCP140.dll
 0000:fffbe000       .debug$S                   00400000     msvcprt:MSVCP140.dll
 0000:fffbe000       .debug$S                   00400000     msvcprt:MSVCP140.dll
 0000:fffbe000       .debug$S                   00400000     msvcprt:MSVCP140.dll
 0000:fffbe000       .debug$S                   00400000     msvcprt:MSVCP140.dll
 0000:fffbe000       .debug$S                   00400000     msvcprt:MSVCP140.dll
 0000:fffbe000       .debug$S                   00400000     msvcprt:MSVCP140.dll
 0000:fffbe000       .debug$S                   00400000     msvcprt:MSVCP140.dll
 0000:fffbe000       .debug$S                   00400000     msvcprt:MSVCP140.dll
 0000:fffbe000       .debug$S                   00400000     msvcprt:MSVCP140.dll
 0000:fffbe000       .debug$S                   00400000     msvcprt:MSVCP140.dll
 0000:fffbe000       .debug$S                   00400000     msvcprt:MSVCP140.dll
 0000:fffbe000       .debug$S                   00400000     msvcprt:MSVCP140.dll
 0000:fffbe000       .debug$S                   00400000     msvcprt:MSVCP140.dll
 0000:fffbe000       .debug$S                   00400000     msvcprt:MSVCP140.dll
 0000:fffbe000       .debug$S                   00400000     msvcprt:MSVCP140.dll
 0000:fffbe000       .debug$S                   00400000     msvcprt:MSVCP140.dll
 0000:fffbe000       .debug$S                   00400000     msvcprt:MSVCP140.dll
 0000:fffbe000       .debug$S                   00400000     msvcprt:MSVCP140.dll
 0000:fffbe000       .debug$S                   00400000     msvcprt:MSVCP140.dll
 0000:fffbe000       .debug$S                   00400000     msvcprt:MSVCP140.dll
 0000:fffbe000       .debug$S                   00400000     msvcprt:MSVCP140.dll
 0000:fffbe000       .debug$S                   00400000     msvcprt:MSVCP140.dll
 0000:fffbe000       .debug$S                   00400000     msvcprt:MSVCP140.dll
 0000:fffbe000       .debug$S                   00400000     msvcprt:MSVCP140.dll
 0000:fffbe000       .debug$S                   00400000     msvcprt:MSVCP140.dll
 0000:fffbe000       .debug$S                   00400000     msvcprt:MSVCP140.dll
 0000:fffbe000       .debug$S                   00400000     msvcprt:MSVCP140.dll
 0000:fffbe000       .debug$S                   00400000     msvcprt:MSVCP140.dll
 0000:fffbe000       .debug$S                   00400000     msvcprt:MSVCP140.dll
 0000:fffc0000       __guard_fids__             00400000     msvcprt:locale0_implib.obj
 0002:fffca000       __ehfuncinfo$??1locale@std@@QAE@XZ 00400000     HighscoresState.obj
 0002:fffca000       __ehfuncinfo$?data@?$basic_string@DU?$char_traits@D@std@@V?$allocator@D@2@@std@@QBEPBDXZ 00400000     HighscoresState.obj
 0002:fffca000       __ehfuncinfo$?begin@?$basic_string@DU?$char_traits@D@std@@V?$allocator@D@2@@std@@QAE?AV?$_String_iterator@V?$_String_val@U?$_Simple_types@D@std@@@std@@@2@XZ 00400000     HighscoresState.obj
 0000:fffc0000       __guard_fids_??__E_Fac_tidy_reg@std@@YAXXZ 00400000     msvcprt:locale0_implib.obj
 0002:fffca000       __ehfuncinfo$??1?$basic_string@DU?$char_traits@D@std@@V?$allocator@D@2@@std@@QAE@XZ 00400000     HighscoresState.obj
 0002:fffca000       __ehfuncinfo$??0?$basic_string@DU?$char_traits@D@std@@V?$allocator@D@2@@std@@QAE@XZ 00400000     HighscoresState.obj
 0001:fffff000       __ehhandler$??1?$_Uninitialized_backout_al@PAUhighscorePair@GameState@@V?$allocator@UhighscorePair@GameState@@@std@@@std@@QAE@XZ 00400000 f   HighscoresState.obj
 0001:fffff000       __unwindfunclet$??$_Uninitialized_move_al_unchecked@PAUhighscorePair@GameState@@PAU12@V?$allocator@UhighscorePair@GameState@@@std@@@std@@YAPAUhighscorePair@GameState@@PAU12@QAU12@1AAV?$allocator@UhighscorePair@GameState@@@0@U_General_ptr_iterator_tag@0@U_Unused_parameter@0@@Z$0 00400000 f   HighscoresState.obj
 0000:fffbe000       .debug$S                   00400000     msvcprt:MSVCP140.dll
 0000:fffbe000       .debug$S                   00400000     msvcprt:MSVCP140.dll
 0000:fffbe000       .debug$S                   00400000     msvcprt:MSVCP140.dll
 0000:fffbe000       .debug$S                   00400000     msvcprt:MSVCP140.dll
 0000:fffbe000       .debug$S                   00400000     msvcprt:MSVCP140.dll
 0001:fffff000       __unwindfunclet$??0sentry@?$basic_istream@DU?$char_traits@D@std@@@std@@QAE@AAV12@_N@Z$0 00400000 f   HighscoresState.obj
 0000:fffbe000       .debug$S                   00400000     SDL2_ttf:SDL2_ttf.dll
 0001:fffff000       __ehhandler$??1?$vector@HV?$allocator@H@std@@@std@@QAE@XZ 00400000 f   ProjectileCannonFrag.obj
 0000:fffbe000       .debug$S                   00400000     SDL2_ttf:SDL2_ttf.dll
 0000:fffbe000       .debug$S                   00400000     SDL2_ttf:SDL2_ttf.dll
 0000:fffbe000       .debug$S                   00400000     SDL2_ttf:SDL2_ttf.dll
 0001:fffff000       __ehhandler$??1_Sentry_base@?$basic_istream@DU?$char_traits@D@std@@@std@@QAE@XZ 00400000 f   HighscoresState.obj
 0000:fffbe000       .debug$S                   00400000     SDL2_image:SDL2_image.dll
 0001:fffff000       __ehhandler$??$?0U?$default_delete@V_Facet_base@std@@@std@@$0A@@?$unique_ptr@V_Facet_base@std@@U?$default_delete@V_Facet_base@std@@@2@@std@@QAE@PAV_Facet_base@1@@Z 00400000 f   HighscoresState.obj
 0000:fffbe000       .debug$S                   00400000     SDL2:SDL2.dll
 0000:fffbe000       .debug$S                   00400000     SDL2:SDL2.dll
 0000:fffbe000       .debug$S                   00400000     SDL2:SDL2.dll
 0000:fffbe000       .debug$S                   00400000     SDL2:SDL2.dll
 0000:fffbe000       .debug$S                   00400000     SDL2:SDL2.dll
 0000:fffbe000       .debug$S                   00400000     SDL2:SDL2.dll
 0000:fffbe000       .debug$S                   00400000     SDL2:SDL2.dll
 0000:fffbe000       .debug$S                   00400000     SDL2:SDL2.dll
 0000:fffbe000       .debug$S                   00400000     SDL2:SDL2.dll
 0000:fffbe000       .debug$S                   00400000     SDL2:SDL2.dll
 0000:fffbe000       .debug$S                   00400000     SDL2:SDL2.dll
 0000:fffbe000       .debug$S                   00400000     SDL2:SDL2.dll
 0000:fffbe000       .debug$S                   00400000     SDL2:SDL2.dll
 0000:fffbe000       .debug$S                   00400000     SDL2:SDL2.dll
 0000:fffbe000       .debug$S                   00400000     SDL2:SDL2.dll
 0000:fffbe000       .debug$S                   00400000     SDL2:SDL2.dll
 0000:fffbe000       .debug$S                   00400000     SDL2:SDL2.dll
 0000:fffbe000       .debug$S                   00400000     SDL2:SDL2.dll
 0001:fffff000       __unwindfunclet$??$use_facet@V?$codecvt@DDU_Mbstatet@@@std@@@std@@YAABV?$codecvt@DDU_Mbstatet@@@0@ABVlocale@0@@Z$0 00400000 f   HighscoresState.obj
 0001:fffff000       __ehhandler$??$_Emplace_reallocate@ABUhighscorePair@GameState@@@?$vector@UhighscorePair@GameState@@V?$allocator@UhighscorePair@GameState@@@std@@@std@@QAEPAUhighscorePair@GameState@@QAU23@ABU23@@Z 00400000 f   HighscoresState.obj
 0001:fffff000       __unwindfunclet$??$?5DU?$char_traits@D@std@@@std@@YAAAV?$basic_istream@DU?$char_traits@D@std@@@0@AAV10@PAD@Z$2 00400000 f   HighscoresState.obj
 0001:fffff000       __unwindfunclet$?uflow@?$basic_filebuf@DU?$char_traits@D@std@@@std@@MAEHXZ$0 00400000 f   HighscoresState.obj
 0001:fffff000       __unwindfunclet$?open@?$basic_filebuf@DU?$char_traits@D@std@@@std@@QAEPAV12@PBDHH@Z$0 00400000 f   HighscoresState.obj
 0001:fffff000       __ehhandler$??1?$basic_filebuf@DU?$char_traits@D@std@@@std@@UAE@XZ 00400000 f   HighscoresState.obj
 0001:fffff000       __unwindfunclet$??0?$basic_filebuf@DU?$char_traits@D@std@@@std@@QAE@PAU_iobuf@@@Z$0 00400000 f   HighscoresState.obj
 0001:fffff000       __unwindfunclet$??0?$basic_ifstream@DU?$char_traits@D@std@@@std@@QAE@PBDHH@Z$0 00400000 f   HighscoresState.obj
 0001:fffff000       __ehhandler$??1?$vector@UhighscorePair@GameState@@V?$allocator@UhighscorePair@GameState@@@std@@@std@@QAE@XZ 00400000 f   HighscoresState.obj
 0001:fffff000       __ehhandler$??4?$vector@UhighscorePair@GameState@@V?$allocator@UhighscorePair@GameState@@@std@@@std@@QAEAAV01@$$QAV01@@Z 00400000 f   HighscoresState.obj
 0001:fffff000       __ehhandler$??0?$vector@UhighscorePair@GameState@@V?$allocator@UhighscorePair@GameState@@@std@@@std@@QAE@$$QAV01@@Z 00400000 f   HighscoresState.obj
 0001:fffff000       __ehhandler$?_Move_from@?$vector@UhighscorePair@GameState@@V?$allocator@UhighscorePair@GameState@@@std@@@std@@AAEX$$QAV12@U?$integral_constant@_N$00@2@@Z 00400000 f   HighscoresState.obj
 0001:fffff000       __ehhandler$??0?$vector@UhighscorePair@GameState@@V?$allocator@UhighscorePair@GameState@@@std@@@std@@QAE@XZ 00400000 f   HighscoresState.obj
 0001:fffff000       __unwindfunclet$?readInHighscores@GameState@@QAE?AV?$vector@UhighscorePair@GameState@@V?$allocator@UhighscorePair@GameState@@@std@@@std@@XZ$0 00400000 f   HighscoresState.obj
 0001:fffff000       __unwindfunclet$??$use_facet@V?$ctype@D@std@@@std@@YAABV?$ctype@D@0@ABVlocale@0@@Z$0 00400000 f   HighscoresState.obj
 0001:fffff000       __ehhandler$??1locale@std@@QAE@XZ 00400000 f   HighscoresState.obj
 0001:fffff000       __ehhandler$?data@?$basic_string@DU?$char_traits@D@std@@V?$allocator@D@2@@std@@QBEPBDXZ 00400000 f   HighscoresState.obj
 0001:fffff000       __ehhandler$?begin@?$basic_string@DU?$char_traits@D@std@@V?$allocator@D@2@@std@@QAE?AV?$_String_iterator@V?$_String_val@U?$_Simple_types@D@std@@@std@@@2@XZ 00400000 f   HighscoresState.obj
 0001:fffff000       __ehhandler$??1?$basic_string@DU?$char_traits@D@std@@V?$allocator@D@2@@std@@QAE@XZ 00400000 f   HighscoresState.obj
 0001:fffff000       __ehhandler$??0?$basic_string@DU?$char_traits@D@std@@V?$allocator@D@2@@std@@QAE@XZ 00400000 f   HighscoresState.obj
 0002:fffca000       __unwindtable$?MouseInput@GameMain@@UAEXHHH@Z 00400000     GameStateManager.obj
 0002:fffca000       __ehfuncinfo$?initialise@GameMain@@UAEXXZ 00400000     GameStateManager.obj
 0002:fffca000       __ehfuncinfo$??1?$vector@UhighscorePair@GameState@@V?$allocator@UhighscorePair@GameState@@@std@@@std@@QAE@XZ 00400000     GameStateManager.obj
 0001:fffff000       __ehhandler$??0?$vector@UhighscorePair@GameState@@V?$allocator@UhighscorePair@GameState@@@std@@@std@@QAE@XZ 00400000 f   GameStateManager.obj
 0001:fffff000       __ehhandler$??1?$vector@UhighscorePair@GameState@@V?$allocator@UhighscorePair@GameState@@@std@@@std@@QAE@XZ 00400000 f   GameStateManager.obj
 0002:fffca000       __ehfuncinfo$??0?$vector@UhighscorePair@GameState@@V?$allocator@UhighscorePair@GameState@@@std@@@std@@QAE@XZ 00400000     GameStateManager.obj
 0001:fffff000       __unwindfunclet$?initialise@GameMain@@UAEXXZ$0 00400000 f   GameStateManager.obj
 0001:fffff000       __unwindfunclet$?MouseInput@GameMain@@UAEXHHH@Z$0 00400000 f   GameStateManager.obj
 0000:fffc0004       __guard_fids__             00400004     MSVCRT:exe_main.obj
 0001:fffff008       __ehhandler$??$_Uninitialized_move_al_unchecked@PAUhighscorePair@GameState@@PAU12@V?$allocator@UhighscorePair@GameState@@@std@@@std@@YAPAUhighscorePair@GameState@@PAU12@QAU12@1AAV?$allocator@UhighscorePair@GameState@@@0@U_General_ptr_iterator_tag@0@U_Unused_parameter@0@@Z 00400008 f   HighscoresState.obj
 0001:fffff008       __unwindfunclet$?readInHighscores@GameState@@QAE?AV?$vector@UhighscorePair@GameState@@V?$allocator@UhighscorePair@GameState@@@std@@@std@@XZ$1 00400008 f   HighscoresState.obj
 0002:fffca008       __ehfuncinfo$?uflow@?$basic_filebuf@DU?$char_traits@D@std@@@std@@MAEHXZ 00400008     HighscoresState.obj
 0000:fffc0008       __guard_fids__             00400008     MSVCRT:exe_main.obj
 0002:fffca008       __ehfuncinfo$?open@?$basic_filebuf@DU?$char_traits@D@std@@@std@@QAEPAV12@PBDHH@Z 00400008     HighscoresState.obj
 0002:fffca008       __ehfuncinfo$??0?$basic_filebuf@DU?$char_traits@D@std@@@std@@QAE@PAU_iobuf@@@Z 00400008     HighscoresState.obj
 0001:fffff008       __ehhandler$?open@?$basic_filebuf@DU?$char_traits@D@std@@@std@@QAEPAV12@PBDHH@Z 00400008 f   HighscoresState.obj
 0002:fffca008       __ehfuncinfo$??0sentry@?$basic_istream@DU?$char_traits@D@std@@@std@@QAE@AAV12@_N@Z 00400008     HighscoresState.obj
 0001:fffff008       __unwindfunclet$??$?5DU?$char_traits@D@std@@@std@@YAAAV?$basic_istream@DU?$char_traits@D@std@@@0@AAV10@PAD@Z$3 00400008 f   HighscoresState.obj
 0001:fffff008       __ehhandler$??0sentry@?$basic_istream@DU?$char_traits@D@std@@@std@@QAE@AAV12@_N@Z 00400008 f   HighscoresState.obj
 0002:fffca008       __ehfuncinfo$??$_Uninitialized_move_al_unchecked@PAUhighscorePair@GameState@@PAU12@V?$allocator@UhighscorePair@GameState@@@std@@@std@@YAPAUhighscorePair@GameState@@PAU12@QAU12@1AAV?$allocator@UhighscorePair@GameState@@@0@U_General_ptr_iterator_tag@0@U_Unused_parameter@0@@Z 00400008     HighscoresState.obj
 0001:fffff008       __ehhandler$?uflow@?$basic_filebuf@DU?$char_traits@D@std@@@std@@MAEHXZ 00400008 f   HighscoresState.obj
 0001:fffff009       __ehhandler$??0?$basic_filebuf@DU?$char_traits@D@std@@@std@@QAE@PAU_iobuf@@@Z 00400009 f   HighscoresState.obj
 0001:fffff009       __unwindfunclet$??$use_facet@V?$codecvt@DDU_Mbstatet@@@std@@@std@@YAABV?$codecvt@DDU_Mbstatet@@@0@ABVlocale@0@@Z$1 00400009 f   HighscoresState.obj
 0001:fffff009       __unwindfunclet$??$use_facet@V?$ctype@D@std@@@std@@YAABV?$ctype@D@0@ABVlocale@0@@Z$1 00400009 f   HighscoresState.obj
 0002:fffca010       __unwindtable$??$_Emplace_reallocate@ABH@?$vector@HV?$allocator@H@std@@@std@@QAEPAHQAHABH@Z 00400010     ProjectileCannon.obj
 0002:fffca010       __unwindtable$??$_Emplace_reallocate@ABH@?$vector@HV?$allocator@H@std@@@std@@QAEPAHQAHABH@Z 00400010     ProjectileSniper.obj
 0002:fffca010       __ehfuncinfo$??$use_facet@V?$codecvt@DDU_Mbstatet@@@std@@@std@@YAABV?$codecvt@DDU_Mbstatet@@@0@ABVlocale@0@@Z 00400010     HighscoresState.obj
 0001:fffff010       __ehhandler$??$?5DU?$char_traits@D@std@@@std@@YAAAV?$basic_istream@DU?$char_traits@D@std@@@0@AAV10@PAD@Z 00400010 f   HighscoresState.obj
 0002:fffca010       __unwindtable$??$_Emplace_reallocate@ABUhighscorePair@GameState@@@?$vector@UhighscorePair@GameState@@V?$allocator@UhighscorePair@GameState@@@std@@@std@@QAEPAUhighscorePair@GameState@@QAU23@ABU23@@Z 00400010     HighscoresState.obj
 0002:fffca010       __unwindtable$??$_Emplace_reallocate@ABH@?$vector@HV?$allocator@H@std@@@std@@QAEPAHQAHABH@Z 00400010     ProjectileCannonFrag.obj
 0002:fffca010       __ehfuncinfo$??$use_facet@V?$ctype@D@std@@@std@@YAABV?$ctype@D@0@ABVlocale@0@@Z 00400010     HighscoresState.obj
 0002:fffca010       __unwindtable$??0?$vector@HV?$allocator@H@std@@@std@@QAE@ABV01@@Z 00400010     ProjectileCannonFrag.obj
 0002:fffca010       __ehfuncinfo$?readInHighscores@GameState@@QAE?AV?$vector@UhighscorePair@GameState@@V?$allocator@UhighscorePair@GameState@@@std@@@std@@XZ 00400010     HighscoresState.obj
 0002:fffca010       __tryblocktable$??$?5DU?$char_traits@D@std@@@std@@YAAAV?$basic_istream@DU?$char_traits@D@std@@@0@AAV10@PAD@Z 00400010     HighscoresState.obj
 0001:fffff011       __ehhandler$??$use_facet@V?$codecvt@DDU_Mbstatet@@@std@@@std@@YAABV?$codecvt@DDU_Mbstatet@@@0@ABVlocale@0@@Z 00400011 f   HighscoresState.obj
 0001:fffff011       __ehhandler$??$use_facet@V?$ctype@D@std@@@std@@YAABV?$ctype@D@0@ABVlocale@0@@Z 00400011 f   HighscoresState.obj
 0001:fffff012       __unwindfunclet$?MouseInput@GameMain@@UAEXHHH@Z$1 00400012 f   GameStateManager.obj
 0001:fffff012       __unwindfunclet$?initialise@GameMain@@UAEXXZ$1 00400012 f   GameStateManager.obj
 0001:fffff013       __ehhandler$?readInHighscores@GameState@@QAE?AV?$vector@UhighscorePair@GameState@@V?$allocator@UhighscorePair@GameState@@@std@@@std@@XZ 00400013 f   HighscoresState.obj
 0002:fffca018       __ehfuncinfo$??0?$basic_ifstream@DU?$char_traits@D@std@@@std@@QAE@PBDHH@Z 00400018     HighscoresState.obj
 0002:fffca018       __ehfuncinfo$?MouseInput@GameMain@@UAEXHHH@Z 00400018     GameStateManager.obj
 0001:fffff01d       __unwindfunclet$??0?$basic_ifstream@DU?$char_traits@D@std@@@std@@QAE@PBDHH@Z$1 0040001d f   HighscoresState.obj
 0002:fffca020       __tryblocktable$??0?$vector@HV?$allocator@H@std@@@std@@QAE@ABV01@@Z 00400020     ProjectileCannonFrag.obj
 0002:fffca020       __tryblocktable$??$_Emplace_reallocate@ABH@?$vector@HV?$allocator@H@std@@@std@@QAEPAHQAHABH@Z 00400020     ProjectileCannon.obj
 0002:fffca020       __tryblocktable$??$_Emplace_reallocate@ABUhighscorePair@GameState@@@?$vector@UhighscorePair@GameState@@V?$allocator@UhighscorePair@GameState@@@std@@@std@@QAEPAUhighscorePair@GameState@@QAU23@ABU23@@Z 00400020     HighscoresState.obj
 0002:fffca020       __tryblocktable$??$_Emplace_reallocate@ABH@?$vector@HV?$allocator@H@std@@@std@@QAEPAHQAHABH@Z 00400020     ProjectileCannonFrag.obj
 0002:fffca020       __tryblocktable$??$_Emplace_reallocate@ABH@?$vector@HV?$allocator@H@std@@@std@@QAEPAHQAHABH@Z 00400020     ProjectileSniper.obj
 0001:fffff024       __unwindfunclet$?initialise@GameMain@@UAEXXZ$3 00400024 f   GameStateManager.obj
 0001:fffff024       __unwindfunclet$?MouseInput@GameMain@@UAEXHHH@Z$2 00400024 f   GameStateManager.obj
 0002:fffca024       __unwindtable$?initialise@GameMain@@UAEXXZ 00400024     GameStateManager.obj
 0002:fffca024       __unwindtable$??$?5DU?$char_traits@D@std@@@std@@YAAAV?$basic_istream@DU?$char_traits@D@std@@@0@AAV10@PAD@Z 00400024     HighscoresState.obj
 0001:fffff029       __unwindfunclet$??0?$basic_ifstream@DU?$char_traits@D@std@@@std@@QAE@PBDHH@Z$2 00400029 f   HighscoresState.obj
 0002:fffca034       __ehfuncinfo$??$_Emplace_reallocate@ABH@?$vector@HV?$allocator@H@std@@@std@@QAEPAHQAHABH@Z 00400034     ProjectileSniper.obj
 0002:fffca034       __ehfuncinfo$??0?$vector@HV?$allocator@H@std@@@std@@QAE@ABV01@@Z 00400034     ProjectileCannonFrag.obj
 0002:fffca034       __ehfuncinfo$??$_Emplace_reallocate@ABH@?$vector@HV?$allocator@H@std@@@std@@QAEPAHQAHABH@Z 00400034     ProjectileCannon.obj
 0001:fffff034       __ehhandler$??0?$basic_ifstream@DU?$char_traits@D@std@@@std@@QAE@PBDHH@Z 00400034 f   HighscoresState.obj
 0002:fffca034       __ehfuncinfo$??$_Emplace_reallocate@ABUhighscorePair@GameState@@@?$vector@UhighscorePair@GameState@@V?$allocator@UhighscorePair@GameState@@@std@@@std@@QAEPAUhighscorePair@GameState@@QAU23@ABU23@@Z 00400034     HighscoresState.obj
 0002:fffca034       __ehfuncinfo$??$_Emplace_reallocate@ABH@?$vector@HV?$allocator@H@std@@@std@@QAEPAHQAHABH@Z 00400034     ProjectileCannonFrag.obj
 0001:fffff036       __ehhandler$?MouseInput@GameMain@@UAEXHHH@Z 00400036 f   GameStateManager.obj
 0001:fffff039       __unwindfunclet$?initialise@GameMain@@UAEXXZ$4 00400039 f   GameStateManager.obj
 0002:fffca044       __ehfuncinfo$??$?5DU?$char_traits@D@std@@@std@@YAAAV?$basic_istream@DU?$char_traits@D@std@@@0@AAV10@PAD@Z 00400044     HighscoresState.obj
 0001:fffff04e       __unwindfunclet$?initialise@GameMain@@UAEXXZ$5 0040004e f   GameStateManager.obj
 0001:fffff063       __ehhandler$?initialise@GameMain@@UAEXXZ 00400063 f   GameStateManager.obj
 0001:fffff0a7       __catch$??0?$vector@HV?$allocator@H@std@@@std@@QAE@ABV01@@Z$0 004000a7 f   ProjectileCannonFrag.obj
 0001:fffff161       __catch$??$_Emplace_reallocate@ABH@?$vector@HV?$allocator@H@std@@@std@@QAEPAHQAHABH@Z$0 00400161 f   ProjectileCannonFrag.obj
 0001:fffff161       __catch$??$_Emplace_reallocate@ABH@?$vector@HV?$allocator@H@std@@@std@@QAEPAHQAHABH@Z$0 00400161 f   ProjectileSniper.obj
 0001:fffff161       __catch$??$_Emplace_reallocate@ABH@?$vector@HV?$allocator@H@std@@@std@@QAEPAHQAHABH@Z$0 00400161 f   ProjectileCannon.obj
 0001:fffff166       __catch$??$_Emplace_reallocate@ABUhighscorePair@GameState@@@?$vector@UhighscorePair@GameState@@V?$allocator@UhighscorePair@GameState@@@std@@@std@@QAEPAUhighscorePair@GameState@@QAU23@ABU23@@Z$0 00400166 f   HighscoresState.obj
 0001:fffff1fc       __catch$??$?5DU?$char_traits@D@std@@@std@@YAAAV?$basic_istream@DU?$char_traits@D@std@@@0@AAV10@PAD@Z$0 004001fc f   HighscoresState.obj
 0001:000031c9       ??__E_Fac_tidy_reg@std@@YAXXZ 004041c9 f   msvcprt:locale0_implib.obj
 0001:00005544       $LN14                      00406544     Enemy.obj
 0001:00005ca8       $LN35                      00406ca8     Enemy.obj
 0001:00005cb8       $LN36                      00406cb8     Enemy.obj
 0001:00007ba1       __catch$??$_Emplace_reallocate@ABQAVProjectileBasic@@@?$vector@PAVProjectileBasic@@V?$allocator@PAVProjectileBasic@@@std@@@std@@QAEPAPAVProjectileBasic@@QAPAV2@ABQAV2@@Z$0 00408ba1 f i GameMain.obj
 0001:0000ca5c       __catch$??$?5DU?$char_traits@D@std@@@std@@YAAAV?$basic_istream@DU?$char_traits@D@std@@@0@AAV10@PAD@Z$0 0040da5c f i GameOverState.obj
 0001:0000cf76       __catch$??$_Emplace_reallocate@ABUhighscorePair@GameState@@@?$vector@UhighscorePair@GameState@@V?$allocator@UhighscorePair@GameState@@@std@@@std@@QAEPAUhighscorePair@GameState@@QAU23@ABU23@@Z$0 0040df76 f i GameOverState.obj
 0001:0000d553       __catch$??$_Insert_string@DU?$char_traits@D@std@@I@std@@YAAAV?$basic_ostream@DU?$char_traits@D@std@@@0@AAV10@QBDI@Z$0 0040e553 f i GameOverState.obj
 0001:0001441c       $LN9                       0041541c     GameStateManager.obj
 0001:00015440       _time                      00416440 f   mainfunction.obj
 0001:00016810       $LN46                      00417810     BaseEngine.obj
 0001:00019c81       __catch$??$_Emplace_reallocate@ABQAVDisplayableObject@@@?$vector@PAVDisplayableObject@@V?$allocator@PAVDisplayableObject@@@std@@@std@@QAEPAPAVDisplayableObject@@QAPAV2@ABQAV2@@Z$0 0041ac81 f i BaseEngine.obj
 0001:00019ed1       __catch$??$_Emplace_reallocate@PAVDisplayableObject@@@?$vector@PAVDisplayableObject@@V?$allocator@PAVDisplayableObject@@@std@@@std@@QAEPAPAVDisplayableObject@@QAPAV2@$$QAPAV2@@Z$0 0041aed1 f i BaseEngine.obj
 0001:0001a211       __catch$??$_Resize@V<lambda_2afd52570c452b238925c6f475a76105>@@@?$vector@PAVDisplayableObject@@V?$allocator@PAVDisplayableObject@@@std@@@std@@AAEXIV<lambda_2afd52570c452b238925c6f475a76105>@@@Z$0 0041b211 f i BaseEngine.obj
 0001:0001a95e       __catch$??0?$vector@PAVDisplayableObject@@V?$allocator@PAVDisplayableObject@@@std@@@std@@QAE@IABV?$allocator@PAVDisplayableObject@@@1@@Z$0 0041b95e f i BaseEngine.obj
 0001:0001ae44       $LN45                      0041be44     BaseEngine.obj
 0001:0001ae60       $LN44                      0041be60     BaseEngine.obj
 0001:0001aed8       $LN46                      0041bed8     BaseEngine.obj
 0001:00020cd1       __catch$??$_Emplace_reallocate@ABH@?$vector@HV?$allocator@H@std@@@std@@QAEPAHQAHABH@Z$0 00421cd1 f i ProjectileBasic.obj
 0001:000224d1       __catch$??$_Emplace_reallocate@ABQAVProjectileCannonFrag@@@?$vector@PAVProjectileCannonFrag@@V?$allocator@PAVProjectileCannonFrag@@@std@@@std@@QAEPAPAVProjectileCannonFrag@@QAPAV2@ABQAV2@@Z$0 004234d1 f i ProjectileCannon.obj
 0001:00022947       __catch$??0?$vector@HV?$allocator@H@std@@@std@@QAE@ABV01@@Z$0 00423947 f i ProjectileCannon.obj
 0001:00023e0c       $LN17                      00424e0c     SimpleDemo.obj
 0001:00024fe0       $LN23                      00425fe0     BouncingBall.obj
 0001:000264c0       $LN26                      004274c0     BouncingBallMain.obj
 0001:00028318       $LN11                      00429318     Demo3Object.obj
 0001:00028388       $LN11                      00429388     Demo3Object.obj
 0001:0002886c       $LN25                      0042986c     Demo3ObjectFinished.obj
 0001:00028874       $LN21                      00429874     Demo3ObjectFinished.obj
 0001:00028a38       $LN11                      00429a38     Demo3ObjectFinished.obj
 0001:00028aa8       $LN11                      00429aa8     Demo3ObjectFinished.obj
 0001:00028c94       $LN8                       00429c94     Demo3TileManager.obj
 0001:00028c9c       $LN7                       00429c9c     Demo3TileManager.obj
 0001:00029ce4       $LN32                      0042ace4     Demo4Object.obj
 0001:00029cec       $LN27                      0042acec     Demo4Object.obj
 0001:00029f48       $LN11                      0042af48     Demo4Object.obj
 0001:00029fb8       $LN11                      0042afb8     Demo4Object.obj
 0001:0002a1a4       $LN8                       0042b1a4     Demo4TileManager.obj
 0001:0002a1ac       $LN7                       0042b1ac     Demo4TileManager.obj
 0001:0002daf8       ?pre_c_initialization@@YAHXZ 0042eaf8 f   MSVCRT:exe_main.obj
 0001:0002dbcd       ?post_pgo_initialization@@YAHXZ 0042ebcd f   MSVCRT:exe_main.obj
 0001:0002dbd7       ?pre_cpp_initialization@@YAXXZ 0042ebd7 f   MSVCRT:exe_main.obj
 0001:0002dbed       ?__scrt_common_main@@YAHXZ 0042ebed f   MSVCRT:exe_main.obj
 0001:0002dbf9       ?__scrt_common_main_seh@@YAHXZ 0042ebf9 f   MSVCRT:exe_main.obj
 0001:0002ddf0       ?invoke_main@@YAHXZ        0042edf0 f   MSVCRT:exe_main.obj
 0001:0002dec0       $$000000                   0042eec0     MSVCRT:ftol2.obj
 0001:0002e03b       ?find_pe_section@@YAPAU_IMAGE_SECTION_HEADER@@QAEI@Z 0042f03b f   MSVCRT:utility.obj
 0001:0002e090       ?is_potentially_valid_image_base@@YA_NQAX@Z 0042f090 f   MSVCRT:utility.obj
 0001:0002e501       ___get_entropy             0042f501 f   MSVCRT:gs_support.obj
 0001:0002e940       $$000000                   0042f940     MSVCRT:sehprolg4.obj
 0001:0002f310       _ParseCommandLine          00430310 f   SDL2main:SDL_windows_main.obj
 0001:0002f430       _UnEscapeQuotes            00430430 f   SDL2main:SDL_windows_main.obj
 0001:00031050       __unwindfunclet$??0BouncingObject@@QAE@PAVGame@@@Z$0 00432050 f   BouncingObject.obj
 0001:00031058       __ehhandler$??0BouncingObject@@QAE@PAVGame@@@Z 00432058 f   BouncingObject.obj
 0001:00031080       __unwindfunclet$??0Enemy@@QAE@PAVGame@@PAVGameMain@@HH@Z$0 00432080 f   Enemy.obj
 0001:00031088       __ehhandler$??0Enemy@@QAE@PAVGame@@PAVGameMain@@HH@Z 00432088 f   Enemy.obj
 0001:000310b0       __unwindfunclet$?InitialiseObjects@Game@@UAEHXZ$0 004320b0 f   Game.obj
 0001:000310bf       __ehhandler$?InitialiseObjects@Game@@UAEHXZ 004320bf f   Game.obj
 0001:000310f0       __ehhandler$??$_Emplace_reallocate@ABQAVProjectileBasic@@@?$vector@PAVProjectileBasic@@V?$allocator@PAVProjectileBasic@@@std@@@std@@QAEPAPAVProjectileBasic@@QAPAV2@ABQAV2@@Z 004320f0 f   GameMain.obj
 0001:00031120       __ehhandler$??1?$vector@PAVProjectileBasic@@V?$allocator@PAVProjectileBasic@@@std@@@std@@QAE@XZ 00432120 f   GameMain.obj
 0001:00031150       __unwindfunclet$?MouseInput@GameMain@@UAEXHHH@Z$0 00432150 f   GameMain.obj
 0001:00031162       __unwindfunclet$?MouseInput@GameMain@@UAEXHHH@Z$1 00432162 f   GameMain.obj
 0001:00031174       __unwindfunclet$?MouseInput@GameMain@@UAEXHHH@Z$2 00432174 f   GameMain.obj
 0001:00031186       __ehhandler$?MouseInput@GameMain@@UAEXHHH@Z 00432186 f   GameMain.obj
 0001:000311c0       __ehhandler$?begin@?$vector@PAVProjectileBasic@@V?$allocator@PAVProjectileBasic@@@std@@@std@@QAE?AV?$_Vector_iterator@V?$_Vector_val@U?$_Simple_types@PAVProjectileBasic@@@std@@@std@@@2@XZ 004321c0 f   GameMain.obj
 0001:000311f0       __ehhandler$?end@?$vector@PAVProjectileBasic@@V?$allocator@PAVProjectileBasic@@@std@@@std@@QAE?AV?$_Vector_iterator@V?$_Vector_val@U?$_Simple_types@PAVProjectileBasic@@@std@@@std@@@2@XZ 004321f0 f   GameMain.obj
 0001:00031220       __unwindfunclet$?initialise@GameMain@@UAEXXZ$0 00432220 f   GameMain.obj
 0001:00031232       __unwindfunclet$?initialise@GameMain@@UAEXXZ$1 00432232 f   GameMain.obj
 0001:00031244       __unwindfunclet$?initialise@GameMain@@UAEXXZ$3 00432244 f   GameMain.obj
 0001:00031259       __unwindfunclet$?initialise@GameMain@@UAEXXZ$4 00432259 f   GameMain.obj
 0001:0003126e       __unwindfunclet$?initialise@GameMain@@UAEXXZ$5 0043226e f   GameMain.obj
 0001:00031283       __ehhandler$?initialise@GameMain@@UAEXXZ 00432283 f   GameMain.obj
 0001:000312d0       __unwindfunclet$?MouseInput@GameOverState@@UAEXHHH@Z$1 004322d0 f   GameOverState.obj
 0001:000312db       __unwindfunclet$?MouseInput@GameOverState@@UAEXHHH@Z$2 004322db f   GameOverState.obj
 0001:000312e3       __unwindfunclet$?MouseInput@GameOverState@@UAEXHHH@Z$3 004322e3 f   GameOverState.obj
 0001:000312eb       __ehhandler$?MouseInput@GameOverState@@UAEXHHH@Z 004322eb f   GameOverState.obj
 0001:00031330       __unwindfunclet$??$?0PADX@?$basic_string@DU?$char_traits@D@std@@V?$allocator@D@2@@std@@QAE@PAD0ABV?$allocator@D@1@@Z$0 00432330 f   GameOverState.obj
 0001:00031338       __ehhandler$??$?0PADX@?$basic_string@DU?$char_traits@D@std@@V?$allocator@D@2@@std@@QAE@PAD0ABV?$allocator@D@1@@Z 00432338 f   GameOverState.obj
 0001:00031360       __ehhandler$??$?0U?$default_delete@V_Facet_base@std@@@std@@$0A@@?$unique_ptr@V_Facet_base@std@@U?$default_delete@V_Facet_base@std@@@2@@std@@QAE@PAV_Facet_base@1@@Z 00432360 f   GameOverState.obj
 0001:00031390       __unwindfunclet$??$?5DU?$char_traits@D@std@@@std@@YAAAV?$basic_istream@DU?$char_traits@D@std@@@0@AAV10@PAD@Z$2 00432390 f   GameOverState.obj
 0001:00031398       __unwindfunclet$??$?5DU?$char_traits@D@std@@@std@@YAAAV?$basic_istream@DU?$char_traits@D@std@@@0@AAV10@PAD@Z$3 00432398 f   GameOverState.obj
 0001:000313a0       __ehhandler$??$?5DU?$char_traits@D@std@@@std@@YAAAV?$basic_istream@DU?$char_traits@D@std@@@0@AAV10@PAD@Z 004323a0 f   GameOverState.obj
 0001:000313d0       __ehhandler$??$_Emplace_reallocate@ABUhighscorePair@GameState@@@?$vector@UhighscorePair@GameState@@V?$allocator@UhighscorePair@GameState@@@std@@@std@@QAEPAUhighscorePair@GameState@@QAU23@ABU23@@Z 004323d0 f   GameOverState.obj
 0001:00031400       __unwindfunclet$??$_Insert_string@DU?$char_traits@D@std@@I@std@@YAAAV?$basic_ostream@DU?$char_traits@D@std@@@0@AAV10@QBDI@Z$2 00432400 f   GameOverState.obj
 0001:00031408       __ehhandler$??$_Insert_string@DU?$char_traits@D@std@@I@std@@YAAAV?$basic_ostream@DU?$char_traits@D@std@@@0@AAV10@QBDI@Z 00432408 f   GameOverState.obj
 0001:00031430       __unwindfunclet$??$_Uninitialized_move_al_unchecked@PAUhighscorePair@GameState@@PAU12@V?$allocator@UhighscorePair@GameState@@@std@@@std@@YAPAUhighscorePair@GameState@@PAU12@QAU12@1AAV?$allocator@UhighscorePair@GameState@@@0@U_General_ptr_iterator_tag@0@U_Unused_parameter@0@@Z$0 00432430 f   GameOverState.obj
 0001:00031438       __ehhandler$??$_Uninitialized_move_al_unchecked@PAUhighscorePair@GameState@@PAU12@V?$allocator@UhighscorePair@GameState@@@std@@@std@@YAPAUhighscorePair@GameState@@PAU12@QAU12@1AAV?$allocator@UhighscorePair@GameState@@@0@U_General_ptr_iterator_tag@0@U_Unused_parameter@0@@Z 00432438 f   GameOverState.obj
 0001:00031460       __unwindfunclet$??$use_facet@V?$codecvt@DDU_Mbstatet@@@std@@@std@@YAABV?$codecvt@DDU_Mbstatet@@@0@ABVlocale@0@@Z$0 00432460 f   GameOverState.obj
 0001:00031469       __unwindfunclet$??$use_facet@V?$codecvt@DDU_Mbstatet@@@std@@@std@@YAABV?$codecvt@DDU_Mbstatet@@@0@ABVlocale@0@@Z$1 00432469 f   GameOverState.obj
 0001:00031471       __ehhandler$??$use_facet@V?$codecvt@DDU_Mbstatet@@@std@@@std@@YAABV?$codecvt@DDU_Mbstatet@@@0@ABVlocale@0@@Z 00432471 f   GameOverState.obj
 0001:000314a0       __unwindfunclet$??$use_facet@V?$ctype@D@std@@@std@@YAABV?$ctype@D@0@ABVlocale@0@@Z$0 004324a0 f   GameOverState.obj
 0001:000314a9       __unwindfunclet$??$use_facet@V?$ctype@D@std@@@std@@YAABV?$ctype@D@0@ABVlocale@0@@Z$1 004324a9 f   GameOverState.obj
 0001:000314b1       __ehhandler$??$use_facet@V?$ctype@D@std@@@std@@YAABV?$ctype@D@0@ABVlocale@0@@Z 004324b1 f   GameOverState.obj
 0001:000314e0       __unwindfunclet$??0?$basic_filebuf@DU?$char_traits@D@std@@@std@@QAE@PAU_iobuf@@@Z$0 004324e0 f   GameOverState.obj
 0001:000314e9       __ehhandler$??0?$basic_filebuf@DU?$char_traits@D@std@@@std@@QAE@PAU_iobuf@@@Z 004324e9 f   GameOverState.obj
 0001:00031510       __unwindfunclet$??0?$basic_ifstream@DU?$char_traits@D@std@@@std@@QAE@PBDHH@Z$0 00432510 f   GameOverState.obj
 0001:0003152d       __unwindfunclet$??0?$basic_ifstream@DU?$char_traits@D@std@@@std@@QAE@PBDHH@Z$1 0043252d f   GameOverState.obj
 0001:00031539       __unwindfunclet$??0?$basic_ifstream@DU?$char_traits@D@std@@@std@@QAE@PBDHH@Z$2 00432539 f   GameOverState.obj
 0001:00031544       __ehhandler$??0?$basic_ifstream@DU?$char_traits@D@std@@@std@@QAE@PBDHH@Z 00432544 f   GameOverState.obj
 0001:00031580       __unwindfunclet$??0?$basic_ofstream@DU?$char_traits@D@std@@@std@@QAE@XZ$0 00432580 f   GameOverState.obj
 0001:0003159d       __unwindfunclet$??0?$basic_ofstream@DU?$char_traits@D@std@@@std@@QAE@XZ$1 0043259d f   GameOverState.obj
 0001:000315a9       __ehhandler$??0?$basic_ofstream@DU?$char_traits@D@std@@@std@@QAE@XZ 004325a9 f   GameOverState.obj
 0001:000315e0       __ehhandler$??0?$basic_string@DU?$char_traits@D@std@@V?$allocator@D@2@@std@@QAE@XZ 004325e0 f   GameOverState.obj
 0001:00031610       __ehhandler$??0?$vector@UhighscorePair@GameState@@V?$allocator@UhighscorePair@GameState@@@std@@@std@@QAE@$$QAV01@@Z 00432610 f   GameOverState.obj
 0001:00031640       __ehhandler$??0?$vector@UhighscorePair@GameState@@V?$allocator@UhighscorePair@GameState@@@std@@@std@@QAE@XZ 00432640 f   GameOverState.obj
 0001:00031670       __unwindfunclet$??0sentry@?$basic_istream@DU?$char_traits@D@std@@@std@@QAE@AAV12@_N@Z$0 00432670 f   GameOverState.obj
 0001:00031678       __ehhandler$??0sentry@?$basic_istream@DU?$char_traits@D@std@@@std@@QAE@AAV12@_N@Z 00432678 f   GameOverState.obj
 0001:000316a0       __unwindfunclet$??0sentry@?$basic_ostream@DU?$char_traits@D@std@@@std@@QAE@AAV12@@Z$0 004326a0 f   GameOverState.obj
 0001:000316a8       __ehhandler$??0sentry@?$basic_ostream@DU?$char_traits@D@std@@@std@@QAE@AAV12@@Z 004326a8 f   GameOverState.obj
 0001:000316d0       __ehhandler$??1?$_Uninitialized_backout_al@PAUhighscorePair@GameState@@V?$allocator@UhighscorePair@GameState@@@std@@@std@@QAE@XZ 004326d0 f   GameOverState.obj
 0001:00031700       __ehhandler$??1?$basic_filebuf@DU?$char_traits@D@std@@@std@@UAE@XZ 00432700 f   GameOverState.obj
 0001:00031730       __ehhandler$??1?$basic_string@DU?$char_traits@D@std@@V?$allocator@D@2@@std@@QAE@XZ 00432730 f   GameOverState.obj
 0001:00031760       __ehhandler$??1?$vector@UhighscorePair@GameState@@V?$allocator@UhighscorePair@GameState@@@std@@@std@@QAE@XZ 00432760 f   GameOverState.obj
 0001:00031790       __ehhandler$??1_Sentry_base@?$basic_istream@DU?$char_traits@D@std@@@std@@QAE@XZ 00432790 f   GameOverState.obj
 0001:000317c0       __ehhandler$??1_Sentry_base@?$basic_ostream@DU?$char_traits@D@std@@@std@@QAE@XZ 004327c0 f   GameOverState.obj
 0001:000317f0       __ehhandler$??1locale@std@@QAE@XZ 004327f0 f   GameOverState.obj
 0001:00031820       __ehhandler$??1sentry@?$basic_ostream@DU?$char_traits@D@std@@@std@@QAE@XZ 00432820 f   GameOverState.obj
 0001:00031850       __ehhandler$??4?$vector@UhighscorePair@GameState@@V?$allocator@UhighscorePair@GameState@@@std@@@std@@QAEAAV01@$$QAV01@@Z 00432850 f   GameOverState.obj
 0001:00031880       __ehhandler$?_Move_from@?$vector@UhighscorePair@GameState@@V?$allocator@UhighscorePair@GameState@@@std@@@std@@AAEX$$QAV12@U?$integral_constant@_N$00@2@@Z 00432880 f   GameOverState.obj
 0001:000318b0       __ehhandler$?begin@?$basic_string@DU?$char_traits@D@std@@V?$allocator@D@2@@std@@QAE?AV?$_String_iterator@V?$_String_val@U?$_Simple_types@D@std@@@std@@@2@XZ 004328b0 f   GameOverState.obj
 0001:000318e0       __ehhandler$?begin@?$vector@UhighscorePair@GameState@@V?$allocator@UhighscorePair@GameState@@@std@@@std@@QAE?AV?$_Vector_iterator@V?$_Vector_val@U?$_Simple_types@UhighscorePair@GameState@@@std@@@std@@@2@XZ 004328e0 f   GameOverState.obj
 0001:00031910       __ehhandler$?clear@?$basic_string@DU?$char_traits@D@std@@V?$allocator@D@2@@std@@QAEXXZ 00432910 f   GameOverState.obj
 0001:00031940       __ehhandler$?data@?$basic_string@DU?$char_traits@D@std@@V?$allocator@D@2@@std@@QBEPBDXZ 00432940 f   GameOverState.obj
 0001:00031970       __ehhandler$?end@?$vector@UhighscorePair@GameState@@V?$allocator@UhighscorePair@GameState@@@std@@@std@@QAE?AV?$_Vector_iterator@V?$_Vector_val@U?$_Simple_types@UhighscorePair@GameState@@@std@@@std@@@2@XZ 00432970 f   GameOverState.obj
 0001:000319a0       __unwindfunclet$?open@?$basic_filebuf@DU?$char_traits@D@std@@@std@@QAEPAV12@PBDHH@Z$0 004329a0 f   GameOverState.obj
 0001:000319a8       __ehhandler$?open@?$basic_filebuf@DU?$char_traits@D@std@@@std@@QAEPAV12@PBDHH@Z 004329a8 f   GameOverState.obj
 0001:000319d0       __unwindfunclet$?readInHighscores@GameState@@QAE?AV?$vector@UhighscorePair@GameState@@V?$allocator@UhighscorePair@GameState@@@std@@@std@@XZ$0 004329d0 f   GameOverState.obj
 0001:000319d8       __unwindfunclet$?readInHighscores@GameState@@QAE?AV?$vector@UhighscorePair@GameState@@V?$allocator@UhighscorePair@GameState@@@std@@@std@@XZ$1 004329d8 f   GameOverState.obj
 0001:000319e3       __ehhandler$?readInHighscores@GameState@@QAE?AV?$vector@UhighscorePair@GameState@@V?$allocator@UhighscorePair@GameState@@@std@@@std@@XZ 004329e3 f   GameOverState.obj
 0001:00031a20       __unwindfunclet$?uflow@?$basic_filebuf@DU?$char_traits@D@std@@@std@@MAEHXZ$0 00432a20 f   GameOverState.obj
 0001:00031a28       __ehhandler$?uflow@?$basic_filebuf@DU?$char_traits@D@std@@@std@@MAEHXZ 00432a28 f   GameOverState.obj
 0001:00031a60       __unwindfunclet$??0GameStateManager@@QAE@PAVGame@@@Z$0 00432a60 f   GameStateManager.obj
 0001:00031a6f       __ehhandler$??0GameStateManager@@QAE@PAVGame@@@Z 00432a6f f   GameStateManager.obj
 0001:00031a8a       __unwindfunclet$?changeState@GameStateManager@@QAEXD@Z$0 00432a8a f   GameStateManager.obj
 0001:00031a99       __unwindfunclet$?changeState@GameStateManager@@QAEXD@Z$1 00432a99 f   GameStateManager.obj
 0001:00031aab       __unwindfunclet$?changeState@GameStateManager@@QAEXD@Z$2 00432aab f   GameStateManager.obj
 0001:00031aba       __ehhandler$?changeState@GameStateManager@@QAEXD@Z 00432aba f   GameStateManager.obj
 0001:00031ad5       __unwindfunclet$?changeState@GameStateManager@@QAEXDH@Z$0 00432ad5 f   GameStateManager.obj
 0001:00031ae7       __ehhandler$?changeState@GameStateManager@@QAEXDH@Z 00432ae7 f   GameStateManager.obj
 0001:00031b02       __unwindfunclet$?changeState@GameStateManager@@QAEXDHH@Z$0 00432b02 f   GameStateManager.obj
 0001:00031b14       __ehhandler$?changeState@GameStateManager@@QAEXDHH@Z 00432b14 f   GameStateManager.obj
 0001:00031b70       __unwindfunclet$??0?$basic_string@DU?$char_traits@D@std@@V?$allocator@D@2@@std@@QAE@QBD@Z$0 00432b70 f   GameStateManager.obj
 0001:00031b78       __ehhandler$??0?$basic_string@DU?$char_traits@D@std@@V?$allocator@D@2@@std@@QAE@QBD@Z 00432b78 f   GameStateManager.obj
 0001:00031ba0       __ehhandler$??0?$vector@PAVProjectileBasic@@V?$allocator@PAVProjectileBasic@@@std@@@std@@QAE@XZ 00432ba0 f   GameStateManager.obj
 0001:00031bd0       __unwindfunclet$??0GameOverState@@QAE@PAVGame@@HH@Z$0 00432bd0 f   GameStateManager.obj
 0001:00031bd8       __unwindfunclet$??0GameOverState@@QAE@PAVGame@@HH@Z$1 00432bd8 f   GameStateManager.obj
 0001:00031be3       __ehhandler$??0GameOverState@@QAE@PAVGame@@HH@Z 00432be3 f   GameStateManager.obj
 0001:00031c10       __unwindfunclet$??0HighscoresState@@QAE@PAVGame@@@Z$0 00432c10 f   GameStateManager.obj
 0001:00031c18       __unwindfunclet$??0HighscoresState@@QAE@PAVGame@@@Z$1 00432c18 f   GameStateManager.obj
 0001:00031c23       __ehhandler$??0HighscoresState@@QAE@PAVGame@@@Z 00432c23 f   GameStateManager.obj
 0001:00031c50       __unwindfunclet$?initialise@MenuState@@UAEXXZ$0 00432c50 f   GameStateManager.obj
 0001:00031c5f       __unwindfunclet$?initialise@MenuState@@UAEXXZ$1 00432c5f f   GameStateManager.obj
 0001:00031c6e       __unwindfunclet$?initialise@MenuState@@UAEXXZ$2 00432c6e f   GameStateManager.obj
 0001:00031c80       __ehhandler$?initialise@MenuState@@UAEXXZ 00432c80 f   GameStateManager.obj
 0001:00031cb0       __unwindfunclet$??0BaseEngine@@QAE@H@Z$0 00432cb0 f   BaseEngine.obj
 0001:00031cbb       __ehhandler$??0BaseEngine@@QAE@H@Z 00432cbb f   BaseEngine.obj
 0001:00031cd6       __ehhandler$??1BaseEngine@@UAE@XZ 00432cd6 f   BaseEngine.obj
 0001:00031d10       __ehhandler$??$_Emplace_reallocate@ABQAVDisplayableObject@@@?$vector@PAVDisplayableObject@@V?$allocator@PAVDisplayableObject@@@std@@@std@@QAEPAPAVDisplayableObject@@QAPAV2@ABQAV2@@Z 00432d10 f   BaseEngine.obj
 0001:00031d40       __ehhandler$??$_Emplace_reallocate@PAVDisplayableObject@@@?$vector@PAVDisplayableObject@@V?$allocator@PAVDisplayableObject@@@std@@@std@@QAEPAPAVDisplayableObject@@QAPAV2@$$QAPAV2@@Z 00432d40 f   BaseEngine.obj
 0001:00031d70       __ehhandler$??$_Resize@V<lambda_2afd52570c452b238925c6f475a76105>@@@?$vector@PAVDisplayableObject@@V?$allocator@PAVDisplayableObject@@@std@@@std@@AAEXIV<lambda_2afd52570c452b238925c6f475a76105>@@@Z 00432d70 f   BaseEngine.obj
 0001:00031da0       __ehhandler$??0?$vector@PAVDisplayableObject@@V?$allocator@PAVDisplayableObject@@@std@@@std@@QAE@IABV?$allocator@PAVDisplayableObject@@@1@@Z 00432da0 f   BaseEngine.obj
 0001:00031dd0       __ehhandler$??1?$vector@PAVDisplayableObject@@V?$allocator@PAVDisplayableObject@@@std@@@std@@QAE@XZ 00432dd0 f   BaseEngine.obj
 0001:00031e00       __ehhandler$?begin@?$vector@PAVDisplayableObject@@V?$allocator@PAVDisplayableObject@@@std@@@std@@QAE?AV?$_Vector_iterator@V?$_Vector_val@U?$_Simple_types@PAVDisplayableObject@@@std@@@std@@@2@XZ 00432e00 f   BaseEngine.obj
 0001:00031e30       __ehhandler$?clear@?$vector@PAVDisplayableObject@@V?$allocator@PAVDisplayableObject@@@std@@@std@@QAEXXZ 00432e30 f   BaseEngine.obj
 0001:00031e60       __ehhandler$?end@?$vector@PAVDisplayableObject@@V?$allocator@PAVDisplayableObject@@@std@@@std@@QAE?AV?$_Vector_iterator@V?$_Vector_val@U?$_Simple_types@PAVDisplayableObject@@@std@@@std@@@2@XZ 00432e60 f   BaseEngine.obj
 0001:00031e90       __unwindfunclet$?GetFont@FontManager@@QAEPAVFont@@PBDH@Z$0 00432e90 f   FontManager.obj
 0001:00031e9f       __ehhandler$?GetFont@FontManager@@QAEPAVFont@@PBDH@Z 00432e9f f   FontManager.obj
 0001:00031ed0       __unwindfunclet$??0MenuTileManager@@QAE@HPAVGame@@@Z$0 00432ed0 f   MenuTileManager.obj
 0001:00031ed8       __ehhandler$??0MenuTileManager@@QAE@HPAVGame@@@Z 00432ed8 f   MenuTileManager.obj
 0001:00031f00       __unwindfunclet$??0MovableObject@@QAE@PAVGame@@@Z$0 00432f00 f   MovableObject.obj
 0001:00031f08       __ehhandler$??0MovableObject@@QAE@PAVGame@@@Z 00432f08 f   MovableObject.obj
 0001:00031f30       __unwindfunclet$??0ProjectileBasic@@QAE@PAVGame@@PAVGameMain@@PAVEnemy@@HHHHM@Z$0 00432f30 f   ProjectileBasic.obj
 0001:00031f38       __unwindfunclet$??0ProjectileBasic@@QAE@PAVGame@@PAVGameMain@@PAVEnemy@@HHHHM@Z$1 00432f38 f   ProjectileBasic.obj
 0001:00031f43       __ehhandler$??0ProjectileBasic@@QAE@PAVGame@@PAVGameMain@@PAVEnemy@@HHHHM@Z 00432f43 f   ProjectileBasic.obj
 0001:00031f5e       __unwindfunclet$??0ProjectileBasic@@QAE@PAVGame@@PAVGameMain@@HHHV?$vector@HV?$allocator@H@std@@@std@@@Z$0 00432f5e f   ProjectileBasic.obj
 0001:00031f66       __unwindfunclet$??0ProjectileBasic@@QAE@PAVGame@@PAVGameMain@@HHHV?$vector@HV?$allocator@H@std@@@std@@@Z$1 00432f66 f   ProjectileBasic.obj
 0001:00031f6e       __unwindfunclet$??0ProjectileBasic@@QAE@PAVGame@@PAVGameMain@@HHHV?$vector@HV?$allocator@H@std@@@std@@@Z$2 00432f6e f   ProjectileBasic.obj
 0001:00031f79       __ehhandler$??0ProjectileBasic@@QAE@PAVGame@@PAVGameMain@@HHHV?$vector@HV?$allocator@H@std@@@std@@@Z 00432f79 f   ProjectileBasic.obj
 0001:00031fb0       __ehhandler$??$_Emplace_reallocate@ABH@?$vector@HV?$allocator@H@std@@@std@@QAEPAHQAHABH@Z 00432fb0 f   ProjectileBasic.obj
 0001:00031fe0       __ehhandler$??0?$vector@HV?$allocator@H@std@@@std@@QAE@XZ 00432fe0 f   ProjectileBasic.obj
 0001:00032010       __ehhandler$??1?$vector@HV?$allocator@H@std@@@std@@QAE@XZ 00433010 f   ProjectileBasic.obj
 0001:00032040       __ehhandler$??$_Emplace_reallocate@ABQAVProjectileCannonFrag@@@?$vector@PAVProjectileCannonFrag@@V?$allocator@PAVProjectileCannonFrag@@@std@@@std@@QAEPAPAVProjectileCannonFrag@@QAPAV2@ABQAV2@@Z 00433040 f   ProjectileCannon.obj
 0001:00032070       __ehhandler$??0?$vector@HV?$allocator@H@std@@@std@@QAE@ABV01@@Z 00433070 f   ProjectileCannon.obj
 0001:000320a0       __ehhandler$??0?$vector@PAVProjectileCannonFrag@@V?$allocator@PAVProjectileCannonFrag@@@std@@@std@@QAE@XZ 004330a0 f   ProjectileCannon.obj
 0001:000320d0       __ehhandler$??1?$vector@PAVProjectileCannonFrag@@V?$allocator@PAVProjectileCannonFrag@@@std@@@std@@QAE@XZ 004330d0 f   ProjectileCannon.obj
 0001:00032100       __unwindfunclet$?fragment@ProjectileCannon@@QAEXXZ$0 00433100 f   ProjectileCannon.obj
 0001:00032112       __ehhandler$?fragment@ProjectileCannon@@QAEXXZ 00433112 f   ProjectileCannon.obj
 0001:00032140       __unwindfunclet$??0ProjectileCannonFrag@@QAE@PAVGame@@PAVGameMain@@HHHV?$vector@HV?$allocator@H@std@@@std@@@Z$0 00433140 f   ProjectileCannonFrag.obj
 0001:00032148       __unwindfunclet$??0ProjectileCannonFrag@@QAE@PAVGame@@PAVGameMain@@HHHV?$vector@HV?$allocator@H@std@@@std@@@Z$2 00433148 f   ProjectileCannonFrag.obj
 0001:00032150       __unwindfunclet$??0ProjectileCannonFrag@@QAE@PAVGame@@PAVGameMain@@HHHV?$vector@HV?$allocator@H@std@@@std@@@Z$3 00433150 f   ProjectileCannonFrag.obj
 0001:0003215e       __ehhandler$??0ProjectileCannonFrag@@QAE@PAVGame@@PAVGameMain@@HHHV?$vector@HV?$allocator@H@std@@@std@@@Z 0043315e f   ProjectileCannonFrag.obj
 0001:00032190       __unwindfunclet$?InitialiseObjects@SimpleDemo@@UAEHXZ$0 00433190 f   SimpleDemo.obj
 0001:0003219f       __ehhandler$?InitialiseObjects@SimpleDemo@@UAEHXZ 0043319f f   SimpleDemo.obj
 0001:000321d0       __unwindfunclet$??0SimpleShape@@QAE@PAVSimpleDemo@@@Z$0 004331d0 f   SimpleDemo.obj
 0001:000321d8       __ehhandler$??0SimpleShape@@QAE@PAVSimpleDemo@@@Z 004331d8 f   SimpleDemo.obj
 0001:00032200       __unwindfunclet$??0BouncingBall@@QAE@PAVBouncingBallMain@@HHHHPADHH@Z$0 00433200 f   BouncingBall.obj
 0001:00032208       __ehhandler$??0BouncingBall@@QAE@PAVBouncingBallMain@@HHHHPADHH@Z 00433208 f   BouncingBall.obj
 0001:00032223       __unwindfunclet$??0BouncingBall1@@QAE@PAVBouncingBallMain@@HHHHPADHHPAVTileManager@@@Z$0 00433223 f   BouncingBall.obj
 0001:0003222b       __ehhandler$??0BouncingBall1@@QAE@PAVBouncingBallMain@@HHHHPADHHPAVTileManager@@@Z 0043322b f   BouncingBall.obj
 0001:00032260       __unwindfunclet$?SetupBackgroundBuffer@BouncingBallMain@@UAEXXZ$0 00433260 f   BouncingBallMain.obj
 0001:00032268       __unwindfunclet$?SetupBackgroundBuffer@BouncingBallMain@@UAEXXZ$1 00433268 f   BouncingBallMain.obj
 0001:00032270       __ehhandler$?SetupBackgroundBuffer@BouncingBallMain@@UAEXXZ 00433270 f   BouncingBallMain.obj
 0001:0003228b       __unwindfunclet$?InitialiseObjects@BouncingBallMain@@UAEHXZ$0 0043328b f   BouncingBallMain.obj
 0001:0003229a       __unwindfunclet$?InitialiseObjects@BouncingBallMain@@UAEHXZ$1 0043329a f   BouncingBallMain.obj
 0001:000322a9       __unwindfunclet$?InitialiseObjects@BouncingBallMain@@UAEHXZ$2 004332a9 f   BouncingBallMain.obj
 0001:000322b8       __ehhandler$?InitialiseObjects@BouncingBallMain@@UAEHXZ 004332b8 f   BouncingBallMain.obj
 0001:000322f0       __unwindfunclet$??0Demo2Main@@QAE@XZ$0 004332f0 f   Demo2Main.obj
 0001:000322f8       __ehhandler$??0Demo2Main@@QAE@XZ 004332f8 f   Demo2Main.obj
 0001:00032313       __unwindfunclet$?InitialiseObjects@Demo2Main@@UAEHXZ$0 00433313 f   Demo2Main.obj
 0001:00032322       __ehhandler$?InitialiseObjects@Demo2Main@@UAEHXZ 00433322 f   Demo2Main.obj
 0001:00032350       __unwindfunclet$??0Demo2Object@@QAE@PAVDemo2Main@@@Z$0 00433350 f   Demo2Object.obj
 0001:00032358       __ehhandler$??0Demo2Object@@QAE@PAVDemo2Main@@@Z 00433358 f   Demo2Object.obj
 0001:00032380       __unwindfunclet$??0Demo3Main@@QAE@XZ$0 00433380 f   Demo3Main.obj
 0001:00032388       __ehhandler$??0Demo3Main@@QAE@XZ 00433388 f   Demo3Main.obj
 0001:000323a3       __unwindfunclet$?InitialiseObjects@Demo3Main@@UAEHXZ$0 004333a3 f   Demo3Main.obj
 0001:000323b2       __unwindfunclet$?InitialiseObjects@Demo3Main@@UAEHXZ$1 004333b2 f   Demo3Main.obj
 0001:000323c1       __unwindfunclet$?InitialiseObjects@Demo3Main@@UAEHXZ$2 004333c1 f   Demo3Main.obj
 0001:000323d0       __unwindfunclet$?InitialiseObjects@Demo3Main@@UAEHXZ$3 004333d0 f   Demo3Main.obj
 0001:000323df       __unwindfunclet$?InitialiseObjects@Demo3Main@@UAEHXZ$4 004333df f   Demo3Main.obj
 0001:000323ee       __ehhandler$?InitialiseObjects@Demo3Main@@UAEHXZ 004333ee f   Demo3Main.obj
 0001:00032430       __unwindfunclet$??0Demo3Object@@QAE@PAVDemo3Main@@HH@Z$0 00433430 f   Demo3Object.obj
 0001:00032438       __ehhandler$??0Demo3Object@@QAE@PAVDemo3Main@@HH@Z 00433438 f   Demo3Object.obj
 0001:00032460       __unwindfunclet$??0Demo3ObjectFinished@@QAE@PAVDemo3Main@@HH@Z$0 00433460 f   Demo3ObjectFinished.obj
 0001:00032468       __ehhandler$??0Demo3ObjectFinished@@QAE@PAVDemo3Main@@HH@Z 00433468 f   Demo3ObjectFinished.obj
 0001:00032490       __unwindfunclet$??0Demo4Main@@QAE@XZ$0 00433490 f   Demo4Main.obj
 0001:00032498       __ehhandler$??0Demo4Main@@QAE@XZ 00433498 f   Demo4Main.obj
 0001:000324b3       __unwindfunclet$?InitialiseObjects@Demo4Main@@UAEHXZ$0 004334b3 f   Demo4Main.obj
 0001:000324c2       __unwindfunclet$?InitialiseObjects@Demo4Main@@UAEHXZ$1 004334c2 f   Demo4Main.obj
 0001:000324d1       __unwindfunclet$?InitialiseObjects@Demo4Main@@UAEHXZ$2 004334d1 f   Demo4Main.obj
 0001:000324e0       __unwindfunclet$?InitialiseObjects@Demo4Main@@UAEHXZ$3 004334e0 f   Demo4Main.obj
 0001:000324ef       __unwindfunclet$?InitialiseObjects@Demo4Main@@UAEHXZ$4 004334ef f   Demo4Main.obj
 0001:000324fe       __ehhandler$?InitialiseObjects@Demo4Main@@UAEHXZ 004334fe f   Demo4Main.obj
 0001:00032540       __unwindfunclet$??0Demo4Object@@QAE@PAVDemo4Main@@HH@Z$0 00433540 f   Demo4Object.obj
 0001:00032548       __ehhandler$??0Demo4Object@@QAE@PAVDemo4Main@@HH@Z 00433548 f   Demo4Object.obj
 0001:00032570       __unwindfunclet$??0TurretBasic@@QAE@PAVGame@@PAVGameMain@@H@Z$0 00433570 f   TurretBasic.obj
 0001:00032578       __ehhandler$??0TurretBasic@@QAE@PAVGame@@PAVGameMain@@H@Z 00433578 f   TurretBasic.obj
 0001:00032593       __unwindfunclet$?fire@TurretBasic@@UAEXPAVEnemy@@@Z$0 00433593 f   TurretBasic.obj
 0001:000325a5       __ehhandler$?fire@TurretBasic@@UAEXPAVEnemy@@@Z 004335a5 f   TurretBasic.obj
 0001:000325e0       __unwindfunclet$??0TurretCannon@@QAE@PAVGame@@PAVGameMain@@H@Z$0 004335e0 f   TurretCannon.obj
 0001:000325e8       __ehhandler$??0TurretCannon@@QAE@PAVGame@@PAVGameMain@@H@Z 004335e8 f   TurretCannon.obj
 0001:00032603       __unwindfunclet$?fire@TurretCannon@@UAEXPAVEnemy@@@Z$0 00433603 f   TurretCannon.obj
 0001:00032615       __ehhandler$?fire@TurretCannon@@UAEXPAVEnemy@@@Z 00433615 f   TurretCannon.obj
 0001:00032650       __unwindfunclet$??0TurretSniper@@QAE@PAVGame@@PAVGameMain@@H@Z$0 00433650 f   TurretSniper.obj
 0001:00032658       __ehhandler$??0TurretSniper@@QAE@PAVGame@@PAVGameMain@@H@Z 00433658 f   TurretSniper.obj
 0001:00032673       __unwindfunclet$?fire@TurretSniper@@UAEXPAVEnemy@@@Z$0 00433673 f   TurretSniper.obj
 0001:00032685       __ehhandler$?fire@TurretSniper@@UAEXPAVEnemy@@@Z 00433685 f   TurretSniper.obj
 0001:000326c0       __unwindfunclet$?initialise@WaveManager@@QAEXVMapTileManager@@@Z$0 004336c0 f   WaveManager.obj
 0001:000326c8       __ehhandler$?initialise@WaveManager@@QAEXVMapTileManager@@@Z 004336c8 f   WaveManager.obj
 0001:000326e3       __unwindfunclet$?initNewEnemies@WaveManager@@QAEXHQAM@Z$0 004336e3 f   WaveManager.obj
 0001:000326f5       __ehhandler$?initNewEnemies@WaveManager@@QAEXHQAM@Z 004336f5 f   WaveManager.obj
 0001:00032724       __ehhandler$??1_Fac_node@std@@QAE@XZ 00433724 f   msvcprt:locale0_implib.obj
 0001:00033865       ??__F_Fac_tidy_reg@std@@YAXXZ 00434865 f   msvcprt:locale0_implib.obj
 0002:00000104       ?pre_cpp_initializer@@3P6AXXZA 00436104     MSVCRT:exe_main.obj
 0002:00000208       ?_Fac_tidy_reg$initializer$@std@@3P6AXXZA 00436208     msvcprt:locale0_implib.obj
 0002:00000514       ?pre_c_initializer@@3P6AHXZA 00436514     MSVCRT:exe_main.obj
 0002:00000618       ?post_pgo_initializer@@3P6AHXZA 00436618     MSVCRT:exe_main.obj
 0002:00000ca4       $SG70656                   00436ca4     GameMain.obj
 0002:00000cb0       $SG70657                   00436cb0     GameMain.obj
 0002:00000cbc       $SG70658                   00436cbc     GameMain.obj
 0002:00000ccc       $SG70659                   00436ccc     GameMain.obj
 0002:00000cd8       $SG70660                   00436cd8     GameMain.obj
 0002:00000ce4       $SG70661                   00436ce4     GameMain.obj
 0002:00000cf4       $SG70662                   00436cf4     GameMain.obj
 0002:00000d04       $SG70663                   00436d04     GameMain.obj
 0002:00000dc4       $SG68516                   00436dc4     GameOverState.obj
 0002:00000dd4       $SG68517                   00436dd4     GameOverState.obj
 0002:00000de0       $SG68518                   00436de0     GameOverState.obj
 0002:00000df0       $SG68519                   00436df0     GameOverState.obj
 0002:00000dfc       $SG68521                   00436dfc     GameOverState.obj
 0002:00000e08       $SG68522                   00436e08     GameOverState.obj
 0002:00000e18       $SG68523                   00436e18     GameOverState.obj
 0002:00000e28       $SG68524                   00436e28     GameOverState.obj
 0002:00000e34       $SG68525                   00436e34     GameOverState.obj
 0002:00000e44       $SG68526                   00436e44     GameOverState.obj
 0002:00000e54       $SG68527                   00436e54     GameOverState.obj
 0002:00000e60       $SG68909                   00436e60     GameOverState.obj
 0002:00000e70       $SG68910                   00436e70     GameOverState.obj
 0002:00000e74       $SG68911                   00436e74     GameOverState.obj
 0002:00000e78       $SG68912                   00436e78     GameOverState.obj
 0002:00001014       $SG68638                   00437014     HighscoresState.obj
 0002:00001044       $SG68652                   00437044     HighscoresState.obj
 0002:00001054       $SG68653                   00437054     HighscoresState.obj
 0002:00001060       $SG68654                   00437060     HighscoresState.obj
 0002:00001070       $SG68655                   00437070     HighscoresState.obj
 0002:00001078       $SG68656                   00437078     HighscoresState.obj
 0002:0000107c       $SG68657                   0043707c     HighscoresState.obj
 0002:0000108c       $SG68662                   0043708c     HighscoresState.obj
 0002:0000109c       $SG68663                   0043709c     HighscoresState.obj
 0002:000010ac       $SG68665                   004370ac     HighscoresState.obj
 0002:000010b4       $SG68666                   004370b4     HighscoresState.obj
 0002:000010c4       $SG68682                   004370c4     HighscoresState.obj
 0002:000010d4       $SG68685                   004370d4     HighscoresState.obj
 0002:000011bc       $SG68149                   004371bc     mainfunction.obj
 0002:000011d4       $SG68150                   004371d4     mainfunction.obj
 0002:00001260       $SG121756                  00437260     BaseEngine.obj
 0002:00001278       $SG122574                  00437278     BaseEngine.obj
 0002:000013f0       $SG66025                   004373f0     FontManager.obj
 0002:0000140c       $SG66029                   0043740c     FontManager.obj
 0002:00001484       $SG68930                   00437484     MenuState.obj
 0002:00001494       $SG68931                   00437494     MenuState.obj
 0002:000014ac       $SG68932                   004374ac     MenuState.obj
 0002:000014bc       $SG68933                   004374bc     MenuState.obj
 0002:000014c4       $SG68934                   004374c4     MenuState.obj
 0002:000014d4       $SG68935                   004374d4     MenuState.obj
 0002:000014dc       $SG68936                   004374dc     MenuState.obj
 0002:000014ec       $SG68937                   004374ec     MenuState.obj
 0002:000014f4       $SG68938                   004374f4     MenuState.obj
 0002:00001504       $SG68939                   00437504     MenuState.obj
 0002:0000150c       $SG68940                   0043750c     MenuState.obj
 0002:0000151c       $SG68941                   0043751c     MenuState.obj
 0002:00001524       $SG68942                   00437524     MenuState.obj
 0002:00001534       $SG68943                   00437534     MenuState.obj
 0002:0000153c       $SG68944                   0043753c     MenuState.obj
 0002:0000154c       $SG68945                   0043754c     MenuState.obj
 0002:00001558       $SG68946                   00437558     MenuState.obj
 0002:00001568       $SG68947                   00437568     MenuState.obj
 0002:000017ec       $SG67832                   004377ec     SimpleDemo.obj
 0002:00001800       $SG67833                   00437800     SimpleDemo.obj
 0002:00001818       $SG67838                   00437818     SimpleDemo.obj
 0002:00001824       $SG67839                   00437824     SimpleDemo.obj
 0002:00001a64       $SG67554                   00437a64     TileManager.obj
 0002:00001aec       $SG67962                   00437aec     BouncingBallMain.obj
 0002:00001af8       $SG67973                   00437af8     BouncingBallMain.obj
 0002:00001afc       $SG67975                   00437afc     BouncingBallMain.obj
 0002:00001b00       $SG67977                   00437b00     BouncingBallMain.obj
 0002:00001b04       $SG67981                   00437b04     BouncingBallMain.obj
 0002:00001c68       $SG67815                   00437c68     Demo2Main.obj
 0002:00001d20       $SG67963                   00437d20     Demo3Main.obj
 0002:00001d30       $SG67964                   00437d30     Demo3Main.obj
 0002:00001d40       $SG67965                   00437d40     Demo3Main.obj
 0002:00001d50       $SG67966                   00437d50     Demo3Main.obj
 0002:00001d60       $SG67967                   00437d60     Demo3Main.obj
 0002:00001d70       $SG67968                   00437d70     Demo3Main.obj
 0002:00001d80       $SG67969                   00437d80     Demo3Main.obj
 0002:00001d90       $SG67970                   00437d90     Demo3Main.obj
 0002:00001da0       $SG67971                   00437da0     Demo3Main.obj
 0002:00001db0       $SG67972                   00437db0     Demo3Main.obj
 0002:00001dc0       $SG67973                   00437dc0     Demo3Main.obj
 0002:00001dd0       $SG67974                   00437dd0     Demo3Main.obj
 0002:00001dd4       $SG67975                   00437dd4     Demo3Main.obj
 0002:00001dd8       $SG67997                   00437dd8     Demo3Main.obj
 0002:00001ed8       $SG67926                   00437ed8     Demo4Main.obj
 0002:00001ee8       $SG67927                   00437ee8     Demo4Main.obj
 0002:00001ef8       $SG67928                   00437ef8     Demo4Main.obj
 0002:00001f08       $SG67929                   00437f08     Demo4Main.obj
 0002:00001f18       $SG67930                   00437f18     Demo4Main.obj
 0002:00001f28       $SG67931                   00437f28     Demo4Main.obj
 0002:00001f38       $SG67932                   00437f38     Demo4Main.obj
 0002:00001f48       $SG67933                   00437f48     Demo4Main.obj
 0002:00001f58       $SG67934                   00437f58     Demo4Main.obj
 0002:00001f68       $SG67935                   00437f68     Demo4Main.obj
 0002:00001f78       $SG67936                   00437f78     Demo4Main.obj
 0002:00001f88       $SG67937                   00437f88     Demo4Main.obj
 0002:00001f8c       $SG67938                   00437f8c     Demo4Main.obj
 0002:00001f90       $SG67965                   00437f90     Demo4Main.obj
 0002:00001fb4       $SG67967                   00437fb4     Demo4Main.obj
 0002:00001fbc       $SG67969                   00437fbc     Demo4Main.obj
 0002:00002170       $SG70655                   00438170     WaveManager.obj
 0002:00002198       $SG70678                   00438198     WaveManager.obj
 0002:000021ec       $SG70788                   004381ec     WaveManager.obj
 0002:00002210       $SG70793                   00438210     WaveManager.obj
 0002:00002238       $SG70795                   00438238     WaveManager.obj
 0002:00002260       $SG70796                   00438260     WaveManager.obj
 0002:00002284       $SG70797                   00438284     WaveManager.obj
 0002:000022a8       $SG70814                   004382a8     WaveManager.obj
 0002:000022c8       $SG70815                   004382c8     WaveManager.obj
 0002:000022f4       $SG70816                   004382f4     WaveManager.obj
 0002:0000230c       $SG70833                   0043830c     WaveManager.obj
 0002:000023a8       _GS_ExceptionPointers      004383a8     MSVCRT:gs_report.obj
 0002:00004360       __unwindtable$??0BouncingObject@@QAE@PAVGame@@@Z 0043a360     BouncingObject.obj
 0002:00004368       __ehfuncinfo$??0BouncingObject@@QAE@PAVGame@@@Z 0043a368     BouncingObject.obj
 0002:00004390       __unwindtable$??0Enemy@@QAE@PAVGame@@PAVGameMain@@HH@Z 0043a390     Enemy.obj
 0002:00004398       __ehfuncinfo$??0Enemy@@QAE@PAVGame@@PAVGameMain@@HH@Z 0043a398     Enemy.obj
 0002:000043c0       __unwindtable$?InitialiseObjects@Game@@UAEHXZ 0043a3c0     Game.obj
 0002:000043c8       __ehfuncinfo$?InitialiseObjects@Game@@UAEHXZ 0043a3c8     Game.obj
 0002:000043f0       __ehfuncinfo$?initialise@GameMain@@UAEXXZ 0043a3f0     GameMain.obj
 0002:00004414       __unwindtable$?initialise@GameMain@@UAEXXZ 0043a414     GameMain.obj
 0002:00004444       __unwindtable$?MouseInput@GameMain@@UAEXHHH@Z 0043a444     GameMain.obj
 0002:0000445c       __ehfuncinfo$?MouseInput@GameMain@@UAEXHHH@Z 0043a45c     GameMain.obj
 0002:00004488       __ehfuncinfo$??1?$vector@PAVProjectileBasic@@V?$allocator@PAVProjectileBasic@@@std@@@std@@QAE@XZ 0043a488     GameMain.obj
 0002:000044b0       __ehfuncinfo$?begin@?$vector@PAVProjectileBasic@@V?$allocator@PAVProjectileBasic@@@std@@@std@@QAE?AV?$_Vector_iterator@V?$_Vector_val@U?$_Simple_types@PAVProjectileBasic@@@std@@@std@@@2@XZ 0043a4b0     GameMain.obj
 0002:000044d8       __ehfuncinfo$?end@?$vector@PAVProjectileBasic@@V?$allocator@PAVProjectileBasic@@@std@@@std@@QAE?AV?$_Vector_iterator@V?$_Vector_val@U?$_Simple_types@PAVProjectileBasic@@@std@@@std@@@2@XZ 0043a4d8     GameMain.obj
 0002:00004500       __catchsym$??$_Emplace_reallocate@ABQAVProjectileBasic@@@?$vector@PAVProjectileBasic@@V?$allocator@PAVProjectileBasic@@@std@@@std@@QAEPAPAVProjectileBasic@@QAPAV2@ABQAV2@@Z$2 0043a500     GameMain.obj
 0002:00004510       __unwindtable$??$_Emplace_reallocate@ABQAVProjectileBasic@@@?$vector@PAVProjectileBasic@@V?$allocator@PAVProjectileBasic@@@std@@@std@@QAEPAPAVProjectileBasic@@QAPAV2@ABQAV2@@Z 0043a510     GameMain.obj
 0002:00004520       __tryblocktable$??$_Emplace_reallocate@ABQAVProjectileBasic@@@?$vector@PAVProjectileBasic@@V?$allocator@PAVProjectileBasic@@@std@@@std@@QAEPAPAVProjectileBasic@@QAPAV2@ABQAV2@@Z 0043a520     GameMain.obj
 0002:00004534       __ehfuncinfo$??$_Emplace_reallocate@ABQAVProjectileBasic@@@?$vector@PAVProjectileBasic@@V?$allocator@PAVProjectileBasic@@@std@@@std@@QAEPAPAVProjectileBasic@@QAPAV2@ABQAV2@@Z 0043a534     GameMain.obj
 0002:00004560       __ehfuncinfo$??0?$basic_string@DU?$char_traits@D@std@@V?$allocator@D@2@@std@@QAE@XZ 0043a560     GameOverState.obj
 0002:00004588       __ehfuncinfo$??1?$basic_string@DU?$char_traits@D@std@@V?$allocator@D@2@@std@@QAE@XZ 0043a588     GameOverState.obj
 0002:000045b0       __ehfuncinfo$?clear@?$basic_string@DU?$char_traits@D@std@@V?$allocator@D@2@@std@@QAEXXZ 0043a5b0     GameOverState.obj
 0002:000045d8       __ehfuncinfo$?begin@?$basic_string@DU?$char_traits@D@std@@V?$allocator@D@2@@std@@QAE?AV?$_String_iterator@V?$_String_val@U?$_Simple_types@D@std@@@std@@@2@XZ 0043a5d8     GameOverState.obj
 0002:00004600       __ehfuncinfo$?data@?$basic_string@DU?$char_traits@D@std@@V?$allocator@D@2@@std@@QBEPBDXZ 0043a600     GameOverState.obj
 0002:00004628       __ehfuncinfo$??1locale@std@@QAE@XZ 0043a628     GameOverState.obj
 0002:00004650       __unwindtable$??$use_facet@V?$ctype@D@std@@@std@@YAABV?$ctype@D@0@ABVlocale@0@@Z 0043a650     GameOverState.obj
 0002:00004660       __ehfuncinfo$??$use_facet@V?$ctype@D@std@@@std@@YAABV?$ctype@D@0@ABVlocale@0@@Z 0043a660     GameOverState.obj
 0002:0000468c       __unwindtable$?readInHighscores@GameState@@QAE?AV?$vector@UhighscorePair@GameState@@V?$allocator@UhighscorePair@GameState@@@std@@@std@@XZ 0043a68c     GameOverState.obj
 0002:0000469c       __ehfuncinfo$?readInHighscores@GameState@@QAE?AV?$vector@UhighscorePair@GameState@@V?$allocator@UhighscorePair@GameState@@@std@@@std@@XZ 0043a69c     GameOverState.obj
 0002:000046c8       __ehfuncinfo$??0?$vector@UhighscorePair@GameState@@V?$allocator@UhighscorePair@GameState@@@std@@@std@@QAE@XZ 0043a6c8     GameOverState.obj
 0002:000046f0       __ehfuncinfo$?_Move_from@?$vector@UhighscorePair@GameState@@V?$allocator@UhighscorePair@GameState@@@std@@@std@@AAEX$$QAV12@U?$integral_constant@_N$00@2@@Z 0043a6f0     GameOverState.obj
 0002:00004718       __ehfuncinfo$??0?$vector@UhighscorePair@GameState@@V?$allocator@UhighscorePair@GameState@@@std@@@std@@QAE@$$QAV01@@Z 0043a718     GameOverState.obj
 0002:00004740       __ehfuncinfo$??4?$vector@UhighscorePair@GameState@@V?$allocator@UhighscorePair@GameState@@@std@@@std@@QAEAAV01@$$QAV01@@Z 0043a740     GameOverState.obj
 0002:00004768       __ehfuncinfo$??1?$vector@UhighscorePair@GameState@@V?$allocator@UhighscorePair@GameState@@@std@@@std@@QAE@XZ 0043a768     GameOverState.obj
 0002:00004790       __ehfuncinfo$?begin@?$vector@UhighscorePair@GameState@@V?$allocator@UhighscorePair@GameState@@@std@@@std@@QAE?AV?$_Vector_iterator@V?$_Vector_val@U?$_Simple_types@UhighscorePair@GameState@@@std@@@std@@@2@XZ 0043a790     GameOverState.obj
 0002:000047b8       __ehfuncinfo$?end@?$vector@UhighscorePair@GameState@@V?$allocator@UhighscorePair@GameState@@@std@@@std@@QAE?AV?$_Vector_iterator@V?$_Vector_val@U?$_Simple_types@UhighscorePair@GameState@@@std@@@std@@@2@XZ 0043a7b8     GameOverState.obj
 0002:000047e0       __unwindtable$??0?$basic_ifstream@DU?$char_traits@D@std@@@std@@QAE@PBDHH@Z 0043a7e0     GameOverState.obj
 0002:000047f8       __ehfuncinfo$??0?$basic_ifstream@DU?$char_traits@D@std@@@std@@QAE@PBDHH@Z 0043a7f8     GameOverState.obj
 0002:00004824       __unwindtable$??0?$basic_filebuf@DU?$char_traits@D@std@@@std@@QAE@PAU_iobuf@@@Z 0043a824     GameOverState.obj
 0002:0000482c       __ehfuncinfo$??0?$basic_filebuf@DU?$char_traits@D@std@@@std@@QAE@PAU_iobuf@@@Z 0043a82c     GameOverState.obj
 0002:00004854       __ehfuncinfo$??1?$basic_filebuf@DU?$char_traits@D@std@@@std@@UAE@XZ 0043a854     GameOverState.obj
 0002:0000487c       __unwindtable$?open@?$basic_filebuf@DU?$char_traits@D@std@@@std@@QAEPAV12@PBDHH@Z 0043a87c     GameOverState.obj
 0002:00004884       __ehfuncinfo$?open@?$basic_filebuf@DU?$char_traits@D@std@@@std@@QAEPAV12@PBDHH@Z 0043a884     GameOverState.obj
 0002:000048ac       __unwindtable$?uflow@?$basic_filebuf@DU?$char_traits@D@std@@@std@@MAEHXZ 0043a8ac     GameOverState.obj
 0002:000048b4       __ehfuncinfo$?uflow@?$basic_filebuf@DU?$char_traits@D@std@@@std@@MAEHXZ 0043a8b4     GameOverState.obj
 0002:000048dc       __catchsym$??$?5DU?$char_traits@D@std@@@std@@YAAAV?$basic_istream@DU?$char_traits@D@std@@@0@AAV10@PAD@Z$4 0043a8dc     GameOverState.obj
 0002:000048ec       __tryblocktable$??$?5DU?$char_traits@D@std@@@std@@YAAAV?$basic_istream@DU?$char_traits@D@std@@@0@AAV10@PAD@Z 0043a8ec     GameOverState.obj
 0002:00004900       __unwindtable$??$?5DU?$char_traits@D@std@@@std@@YAAAV?$basic_istream@DU?$char_traits@D@std@@@0@AAV10@PAD@Z 0043a900     GameOverState.obj
 0002:00004920       __ehfuncinfo$??$?5DU?$char_traits@D@std@@@std@@YAAAV?$basic_istream@DU?$char_traits@D@std@@@0@AAV10@PAD@Z 0043a920     GameOverState.obj
 0002:00004950       __unwindtable$?MouseInput@GameOverState@@UAEXHHH@Z 0043a950     GameOverState.obj
 0002:00004968       __ehfuncinfo$?MouseInput@GameOverState@@UAEXHHH@Z 0043a968     GameOverState.obj
 0002:00004994       __unwindtable$??0?$basic_ofstream@DU?$char_traits@D@std@@@std@@QAE@XZ 0043a994     GameOverState.obj
 0002:000049a4       __ehfuncinfo$??0?$basic_ofstream@DU?$char_traits@D@std@@@std@@QAE@XZ 0043a9a4     GameOverState.obj
 0002:000049d0       __catchsym$??$_Emplace_reallocate@ABUhighscorePair@GameState@@@?$vector@UhighscorePair@GameState@@V?$allocator@UhighscorePair@GameState@@@std@@@std@@QAEPAUhighscorePair@GameState@@QAU23@ABU23@@Z$2 0043a9d0     GameOverState.obj
 0002:000049e0       __unwindtable$??$_Emplace_reallocate@ABUhighscorePair@GameState@@@?$vector@UhighscorePair@GameState@@V?$allocator@UhighscorePair@GameState@@@std@@@std@@QAEPAUhighscorePair@GameState@@QAU23@ABU23@@Z 0043a9e0     GameOverState.obj
 0002:000049f0       __tryblocktable$??$_Emplace_reallocate@ABUhighscorePair@GameState@@@?$vector@UhighscorePair@GameState@@V?$allocator@UhighscorePair@GameState@@@std@@@std@@QAEPAUhighscorePair@GameState@@QAU23@ABU23@@Z 0043a9f0     GameOverState.obj
 0002:00004a04       __ehfuncinfo$??$_Emplace_reallocate@ABUhighscorePair@GameState@@@?$vector@UhighscorePair@GameState@@V?$allocator@UhighscorePair@GameState@@@std@@@std@@QAEPAUhighscorePair@GameState@@QAU23@ABU23@@Z 0043aa04     GameOverState.obj
 0002:00004a30       __unwindtable$??$use_facet@V?$codecvt@DDU_Mbstatet@@@std@@@std@@YAABV?$codecvt@DDU_Mbstatet@@@0@ABVlocale@0@@Z 0043aa30     GameOverState.obj
 0002:00004a40       __ehfuncinfo$??$use_facet@V?$codecvt@DDU_Mbstatet@@@std@@@std@@YAABV?$codecvt@DDU_Mbstatet@@@0@ABVlocale@0@@Z 0043aa40     GameOverState.obj
 0002:00004a6c       __ehfuncinfo$??$?0U?$default_delete@V_Facet_base@std@@@std@@$0A@@?$unique_ptr@V_Facet_base@std@@U?$default_delete@V_Facet_base@std@@@2@@std@@QAE@PAV_Facet_base@1@@Z 0043aa6c     GameOverState.obj
 0002:00004a94       __unwindtable$??$?0PADX@?$basic_string@DU?$char_traits@D@std@@V?$allocator@D@2@@std@@QAE@PAD0ABV?$allocator@D@1@@Z 0043aa94     GameOverState.obj
 0002:00004a9c       __ehfuncinfo$??$?0PADX@?$basic_string@DU?$char_traits@D@std@@V?$allocator@D@2@@std@@QAE@PAD0ABV?$allocator@D@1@@Z 0043aa9c     GameOverState.obj
 0002:00004ac4       __ehfuncinfo$??1_Sentry_base@?$basic_istream@DU?$char_traits@D@std@@@std@@QAE@XZ 0043aac4     GameOverState.obj
 0002:00004aec       __unwindtable$??0sentry@?$basic_istream@DU?$char_traits@D@std@@@std@@QAE@AAV12@_N@Z 0043aaec     GameOverState.obj
 0002:00004af4       __ehfuncinfo$??0sentry@?$basic_istream@DU?$char_traits@D@std@@@std@@QAE@AAV12@_N@Z 0043aaf4     GameOverState.obj
 0002:00004b1c       __catchsym$??$_Insert_string@DU?$char_traits@D@std@@I@std@@YAAAV?$basic_ostream@DU?$char_traits@D@std@@@0@AAV10@QBDI@Z$3 0043ab1c     GameOverState.obj
 0002:00004b2c       __tryblocktable$??$_Insert_string@DU?$char_traits@D@std@@I@std@@YAAAV?$basic_ostream@DU?$char_traits@D@std@@@0@AAV10@QBDI@Z 0043ab2c     GameOverState.obj
 0002:00004b40       __unwindtable$??$_Insert_string@DU?$char_traits@D@std@@I@std@@YAAAV?$basic_ostream@DU?$char_traits@D@std@@@0@AAV10@QBDI@Z 0043ab40     GameOverState.obj
 0002:00004b58       __ehfuncinfo$??$_Insert_string@DU?$char_traits@D@std@@I@std@@YAAAV?$basic_ostream@DU?$char_traits@D@std@@@0@AAV10@QBDI@Z 0043ab58     GameOverState.obj
 0002:00004b88       __ehfuncinfo$??1_Sentry_base@?$basic_ostream@DU?$char_traits@D@std@@@std@@QAE@XZ 0043ab88     GameOverState.obj
 0002:00004bb0       __unwindtable$??0sentry@?$basic_ostream@DU?$char_traits@D@std@@@std@@QAE@AAV12@@Z 0043abb0     GameOverState.obj
 0002:00004bb8       __ehfuncinfo$??0sentry@?$basic_ostream@DU?$char_traits@D@std@@@std@@QAE@AAV12@@Z 0043abb8     GameOverState.obj
 0002:00004be0       __ehfuncinfo$??1sentry@?$basic_ostream@DU?$char_traits@D@std@@@std@@QAE@XZ 0043abe0     GameOverState.obj
 0002:00004c08       __unwindtable$??$_Uninitialized_move_al_unchecked@PAUhighscorePair@GameState@@PAU12@V?$allocator@UhighscorePair@GameState@@@std@@@std@@YAPAUhighscorePair@GameState@@PAU12@QAU12@1AAV?$allocator@UhighscorePair@GameState@@@0@U_General_ptr_iterator_tag@0@U_Unused_parameter@0@@Z 0043ac08     GameOverState.obj
 0002:00004c10       __ehfuncinfo$??$_Uninitialized_move_al_unchecked@PAUhighscorePair@GameState@@PAU12@V?$allocator@UhighscorePair@GameState@@@std@@@std@@YAPAUhighscorePair@GameState@@PAU12@QAU12@1AAV?$allocator@UhighscorePair@GameState@@@0@U_General_ptr_iterator_tag@0@U_Unused_parameter@0@@Z 0043ac10     GameOverState.obj
 0002:00004c38       __ehfuncinfo$??1?$_Uninitialized_backout_al@PAUhighscorePair@GameState@@V?$allocator@UhighscorePair@GameState@@@std@@@std@@QAE@XZ 0043ac38     GameOverState.obj
 0002:00004cc4       __unwindtable$??0?$basic_string@DU?$char_traits@D@std@@V?$allocator@D@2@@std@@QAE@QBD@Z 0043acc4     GameStateManager.obj
 0002:00004ccc       __ehfuncinfo$??0?$basic_string@DU?$char_traits@D@std@@V?$allocator@D@2@@std@@QAE@QBD@Z 0043accc     GameStateManager.obj
 0002:00004cf4       __unwindtable$?changeState@GameStateManager@@QAEXDHH@Z 0043acf4     GameStateManager.obj
 0002:00004cfc       __unwindtable$?changeState@GameStateManager@@QAEXDH@Z 0043acfc     GameStateManager.obj
 0002:00004d04       __unwindtable$??0GameStateManager@@QAE@PAVGame@@@Z 0043ad04     GameStateManager.obj
 0002:00004d0c       __unwindtable$?changeState@GameStateManager@@QAEXD@Z 0043ad0c     GameStateManager.obj
 0002:00004d24       __ehfuncinfo$?changeState@GameStateManager@@QAEXDHH@Z 0043ad24     GameStateManager.obj
 0002:00004d48       __ehfuncinfo$?changeState@GameStateManager@@QAEXDH@Z 0043ad48     GameStateManager.obj
 0002:00004d6c       __ehfuncinfo$?changeState@GameStateManager@@QAEXD@Z 0043ad6c     GameStateManager.obj
 0002:00004d90       __ehfuncinfo$??0GameStateManager@@QAE@PAVGame@@@Z 0043ad90     GameStateManager.obj
 0002:00004dc8       __ehfuncinfo$??0?$vector@PAVProjectileBasic@@V?$allocator@PAVProjectileBasic@@@std@@@std@@QAE@XZ 0043adc8     GameStateManager.obj
 0002:00004df0       __unwindtable$?initialise@MenuState@@UAEXXZ 0043adf0     GameStateManager.obj
 0002:00004e08       __ehfuncinfo$?initialise@MenuState@@UAEXXZ 0043ae08     GameStateManager.obj
 0002:00004e34       __unwindtable$??0GameOverState@@QAE@PAVGame@@HH@Z 0043ae34     GameStateManager.obj
 0002:00004e44       __ehfuncinfo$??0GameOverState@@QAE@PAVGame@@HH@Z 0043ae44     GameStateManager.obj
 0002:00004e70       __unwindtable$??0HighscoresState@@QAE@PAVGame@@@Z 0043ae70     GameStateManager.obj
 0002:00004e80       __ehfuncinfo$??0HighscoresState@@QAE@PAVGame@@@Z 0043ae80     GameStateManager.obj
 0002:00004eac       __unwindtable$??0BaseEngine@@QAE@H@Z 0043aeac     BaseEngine.obj
 0002:00004eb4       __ehfuncinfo$??1BaseEngine@@UAE@XZ 0043aeb4     BaseEngine.obj
 0002:00004ed8       __ehfuncinfo$??0BaseEngine@@QAE@H@Z 0043aed8     BaseEngine.obj
 0002:00004f04       __catchsym$??0?$vector@PAVDisplayableObject@@V?$allocator@PAVDisplayableObject@@@std@@@std@@QAE@IABV?$allocator@PAVDisplayableObject@@@1@@Z$2 0043af04     BaseEngine.obj
 0002:00004f14       __unwindtable$??0?$vector@PAVDisplayableObject@@V?$allocator@PAVDisplayableObject@@@std@@@std@@QAE@IABV?$allocator@PAVDisplayableObject@@@1@@Z 0043af14     BaseEngine.obj
 0002:00004f24       __tryblocktable$??0?$vector@PAVDisplayableObject@@V?$allocator@PAVDisplayableObject@@@std@@@std@@QAE@IABV?$allocator@PAVDisplayableObject@@@1@@Z 0043af24     BaseEngine.obj
 0002:00004f38       __ehfuncinfo$??0?$vector@PAVDisplayableObject@@V?$allocator@PAVDisplayableObject@@@std@@@std@@QAE@IABV?$allocator@PAVDisplayableObject@@@1@@Z 0043af38     BaseEngine.obj
 0002:00004f64       __ehfuncinfo$??1?$vector@PAVDisplayableObject@@V?$allocator@PAVDisplayableObject@@@std@@@std@@QAE@XZ 0043af64     BaseEngine.obj
 0002:00004f8c       __ehfuncinfo$?clear@?$vector@PAVDisplayableObject@@V?$allocator@PAVDisplayableObject@@@std@@@std@@QAEXXZ 0043af8c     BaseEngine.obj
 0002:00004fb4       __ehfuncinfo$?begin@?$vector@PAVDisplayableObject@@V?$allocator@PAVDisplayableObject@@@std@@@std@@QAE?AV?$_Vector_iterator@V?$_Vector_val@U?$_Simple_types@PAVDisplayableObject@@@std@@@std@@@2@XZ 0043afb4     BaseEngine.obj
 0002:00004fdc       __ehfuncinfo$?end@?$vector@PAVDisplayableObject@@V?$allocator@PAVDisplayableObject@@@std@@@std@@QAE?AV?$_Vector_iterator@V?$_Vector_val@U?$_Simple_types@PAVDisplayableObject@@@std@@@std@@@2@XZ 0043afdc     BaseEngine.obj
 0002:00005004       __catchsym$??$_Resize@V<lambda_2afd52570c452b238925c6f475a76105>@@@?$vector@PAVDisplayableObject@@V?$allocator@PAVDisplayableObject@@@std@@@std@@AAEXIV<lambda_2afd52570c452b238925c6f475a76105>@@@Z$2 0043b004     BaseEngine.obj
 0002:00005014       __unwindtable$??$_Resize@V<lambda_2afd52570c452b238925c6f475a76105>@@@?$vector@PAVDisplayableObject@@V?$allocator@PAVDisplayableObject@@@std@@@std@@AAEXIV<lambda_2afd52570c452b238925c6f475a76105>@@@Z 0043b014     BaseEngine.obj
 0002:00005024       __tryblocktable$??$_Resize@V<lambda_2afd52570c452b238925c6f475a76105>@@@?$vector@PAVDisplayableObject@@V?$allocator@PAVDisplayableObject@@@std@@@std@@AAEXIV<lambda_2afd52570c452b238925c6f475a76105>@@@Z 0043b024     BaseEngine.obj
 0002:00005038       __ehfuncinfo$??$_Resize@V<lambda_2afd52570c452b238925c6f475a76105>@@@?$vector@PAVDisplayableObject@@V?$allocator@PAVDisplayableObject@@@std@@@std@@AAEXIV<lambda_2afd52570c452b238925c6f475a76105>@@@Z 0043b038     BaseEngine.obj
 0002:00005064       __catchsym$??$_Emplace_reallocate@PAVDisplayableObject@@@?$vector@PAVDisplayableObject@@V?$allocator@PAVDisplayableObject@@@std@@@std@@QAEPAPAVDisplayableObject@@QAPAV2@$$QAPAV2@@Z$2 0043b064     BaseEngine.obj
 0002:00005074       __unwindtable$??$_Emplace_reallocate@PAVDisplayableObject@@@?$vector@PAVDisplayableObject@@V?$allocator@PAVDisplayableObject@@@std@@@std@@QAEPAPAVDisplayableObject@@QAPAV2@$$QAPAV2@@Z 0043b074     BaseEngine.obj
 0002:00005084       __tryblocktable$??$_Emplace_reallocate@PAVDisplayableObject@@@?$vector@PAVDisplayableObject@@V?$allocator@PAVDisplayableObject@@@std@@@std@@QAEPAPAVDisplayableObject@@QAPAV2@$$QAPAV2@@Z 0043b084     BaseEngine.obj
 0002:00005098       __ehfuncinfo$??$_Emplace_reallocate@PAVDisplayableObject@@@?$vector@PAVDisplayableObject@@V?$allocator@PAVDisplayableObject@@@std@@@std@@QAEPAPAVDisplayableObject@@QAPAV2@$$QAPAV2@@Z 0043b098     BaseEngine.obj
 0002:000050c4       __catchsym$??$_Emplace_reallocate@ABQAVDisplayableObject@@@?$vector@PAVDisplayableObject@@V?$allocator@PAVDisplayableObject@@@std@@@std@@QAEPAPAVDisplayableObject@@QAPAV2@ABQAV2@@Z$2 0043b0c4     BaseEngine.obj
 0002:000050d4       __unwindtable$??$_Emplace_reallocate@ABQAVDisplayableObject@@@?$vector@PAVDisplayableObject@@V?$allocator@PAVDisplayableObject@@@std@@@std@@QAEPAPAVDisplayableObject@@QAPAV2@ABQAV2@@Z 0043b0d4     BaseEngine.obj
 0002:000050e4       __tryblocktable$??$_Emplace_reallocate@ABQAVDisplayableObject@@@?$vector@PAVDisplayableObject@@V?$allocator@PAVDisplayableObject@@@std@@@std@@QAEPAPAVDisplayableObject@@QAPAV2@ABQAV2@@Z 0043b0e4     BaseEngine.obj
 0002:000050f8       __ehfuncinfo$??$_Emplace_reallocate@ABQAVDisplayableObject@@@?$vector@PAVDisplayableObject@@V?$allocator@PAVDisplayableObject@@@std@@@std@@QAEPAPAVDisplayableObject@@QAPAV2@ABQAV2@@Z 0043b0f8     BaseEngine.obj
 0002:00005124       __unwindtable$?GetFont@FontManager@@QAEPAVFont@@PBDH@Z 0043b124     FontManager.obj
 0002:0000512c       __ehfuncinfo$?GetFont@FontManager@@QAEPAVFont@@PBDH@Z 0043b12c     FontManager.obj
 0002:00005154       __unwindtable$??0MenuTileManager@@QAE@HPAVGame@@@Z 0043b154     MenuTileManager.obj
 0002:0000515c       __ehfuncinfo$??0MenuTileManager@@QAE@HPAVGame@@@Z 0043b15c     MenuTileManager.obj
 0002:00005184       __unwindtable$??0MovableObject@@QAE@PAVGame@@@Z 0043b184     MovableObject.obj
 0002:0000518c       __ehfuncinfo$??0MovableObject@@QAE@PAVGame@@@Z 0043b18c     MovableObject.obj
 0002:000051b4       __unwindtable$??0ProjectileBasic@@QAE@PAVGame@@PAVGameMain@@PAVEnemy@@HHHHM@Z 0043b1b4     ProjectileBasic.obj
 0002:000051c4       __unwindtable$??0ProjectileBasic@@QAE@PAVGame@@PAVGameMain@@HHHV?$vector@HV?$allocator@H@std@@@std@@@Z 0043b1c4     ProjectileBasic.obj
 0002:000051dc       __ehfuncinfo$??0ProjectileBasic@@QAE@PAVGame@@PAVGameMain@@HHHV?$vector@HV?$allocator@H@std@@@std@@@Z 0043b1dc     ProjectileBasic.obj
 0002:00005200       __ehfuncinfo$??0ProjectileBasic@@QAE@PAVGame@@PAVGameMain@@PAVEnemy@@HHHHM@Z 0043b200     ProjectileBasic.obj
 0002:00005230       __ehfuncinfo$??0?$vector@HV?$allocator@H@std@@@std@@QAE@XZ 0043b230     ProjectileBasic.obj
 0002:00005258       __ehfuncinfo$??1?$vector@HV?$allocator@H@std@@@std@@QAE@XZ 0043b258     ProjectileBasic.obj
 0002:00005280       __catchsym$??$_Emplace_reallocate@ABH@?$vector@HV?$allocator@H@std@@@std@@QAEPAHQAHABH@Z$2 0043b280     ProjectileBasic.obj
 0002:00005290       __unwindtable$??$_Emplace_reallocate@ABH@?$vector@HV?$allocator@H@std@@@std@@QAEPAHQAHABH@Z 0043b290     ProjectileBasic.obj
 0002:000052a0       __tryblocktable$??$_Emplace_reallocate@ABH@?$vector@HV?$allocator@H@std@@@std@@QAEPAHQAHABH@Z 0043b2a0     ProjectileBasic.obj
 0002:000052b4       __ehfuncinfo$??$_Emplace_reallocate@ABH@?$vector@HV?$allocator@H@std@@@std@@QAEPAHQAHABH@Z 0043b2b4     ProjectileBasic.obj
 0002:000052e0       __catchsym$??0?$vector@HV?$allocator@H@std@@@std@@QAE@ABV01@@Z$2 0043b2e0     ProjectileCannon.obj
 0002:000052f0       __unwindtable$??0?$vector@HV?$allocator@H@std@@@std@@QAE@ABV01@@Z 0043b2f0     ProjectileCannon.obj
 0002:00005300       __tryblocktable$??0?$vector@HV?$allocator@H@std@@@std@@QAE@ABV01@@Z 0043b300     ProjectileCannon.obj
 0002:00005314       __ehfuncinfo$??0?$vector@HV?$allocator@H@std@@@std@@QAE@ABV01@@Z 0043b314     ProjectileCannon.obj
 0002:00005340       __unwindtable$?fragment@ProjectileCannon@@QAEXXZ 0043b340     ProjectileCannon.obj
 0002:00005348       __ehfuncinfo$?fragment@ProjectileCannon@@QAEXXZ 0043b348     ProjectileCannon.obj
 0002:00005370       __ehfuncinfo$??0?$vector@PAVProjectileCannonFrag@@V?$allocator@PAVProjectileCannonFrag@@@std@@@std@@QAE@XZ 0043b370     ProjectileCannon.obj
 0002:00005398       __ehfuncinfo$??1?$vector@PAVProjectileCannonFrag@@V?$allocator@PAVProjectileCannonFrag@@@std@@@std@@QAE@XZ 0043b398     ProjectileCannon.obj
 0002:000053c0       __catchsym$??$_Emplace_reallocate@ABQAVProjectileCannonFrag@@@?$vector@PAVProjectileCannonFrag@@V?$allocator@PAVProjectileCannonFrag@@@std@@@std@@QAEPAPAVProjectileCannonFrag@@QAPAV2@ABQAV2@@Z$2 0043b3c0     ProjectileCannon.obj
 0002:000053d0       __unwindtable$??$_Emplace_reallocate@ABQAVProjectileCannonFrag@@@?$vector@PAVProjectileCannonFrag@@V?$allocator@PAVProjectileCannonFrag@@@std@@@std@@QAEPAPAVProjectileCannonFrag@@QAPAV2@ABQAV2@@Z 0043b3d0     ProjectileCannon.obj
 0002:000053e0       __tryblocktable$??$_Emplace_reallocate@ABQAVProjectileCannonFrag@@@?$vector@PAVProjectileCannonFrag@@V?$allocator@PAVProjectileCannonFrag@@@std@@@std@@QAEPAPAVProjectileCannonFrag@@QAPAV2@ABQAV2@@Z 0043b3e0     ProjectileCannon.obj
 0002:000053f4       __ehfuncinfo$??$_Emplace_reallocate@ABQAVProjectileCannonFrag@@@?$vector@PAVProjectileCannonFrag@@V?$allocator@PAVProjectileCannonFrag@@@std@@@std@@QAEPAPAVProjectileCannonFrag@@QAPAV2@ABQAV2@@Z 0043b3f4     ProjectileCannon.obj
 0002:00005420       __unwindtable$??0ProjectileCannonFrag@@QAE@PAVGame@@PAVGameMain@@HHHV?$vector@HV?$allocator@H@std@@@std@@@Z 0043b420     ProjectileCannonFrag.obj
 0002:00005438       __ehfuncinfo$??0ProjectileCannonFrag@@QAE@PAVGame@@PAVGameMain@@HHHV?$vector@HV?$allocator@H@std@@@std@@@Z 0043b438     ProjectileCannonFrag.obj
 0002:00005464       __unwindtable$?InitialiseObjects@SimpleDemo@@UAEHXZ 0043b464     SimpleDemo.obj
 0002:0000546c       __ehfuncinfo$?InitialiseObjects@SimpleDemo@@UAEHXZ 0043b46c     SimpleDemo.obj
 0002:00005494       __unwindtable$??0SimpleShape@@QAE@PAVSimpleDemo@@@Z 0043b494     SimpleDemo.obj
 0002:0000549c       __ehfuncinfo$??0SimpleShape@@QAE@PAVSimpleDemo@@@Z 0043b49c     SimpleDemo.obj
 0002:000054c4       __unwindtable$??0BouncingBall1@@QAE@PAVBouncingBallMain@@HHHHPADHHPAVTileManager@@@Z 0043b4c4     BouncingBall.obj
 0002:000054cc       __unwindtable$??0BouncingBall@@QAE@PAVBouncingBallMain@@HHHHPADHH@Z 0043b4cc     BouncingBall.obj
 0002:000054d4       __ehfuncinfo$??0BouncingBall1@@QAE@PAVBouncingBallMain@@HHHHPADHHPAVTileManager@@@Z 0043b4d4     BouncingBall.obj
 0002:000054f8       __ehfuncinfo$??0BouncingBall@@QAE@PAVBouncingBallMain@@HHHHPADHH@Z 0043b4f8     BouncingBall.obj
 0002:00005524       __unwindtable$?SetupBackgroundBuffer@BouncingBallMain@@UAEXXZ 0043b524     BouncingBallMain.obj
 0002:00005534       __unwindtable$?InitialiseObjects@BouncingBallMain@@UAEHXZ 0043b534     BouncingBallMain.obj
 0002:0000554c       __ehfuncinfo$?InitialiseObjects@BouncingBallMain@@UAEHXZ 0043b54c     BouncingBallMain.obj
 0002:00005570       __ehfuncinfo$?SetupBackgroundBuffer@BouncingBallMain@@UAEXXZ 0043b570     BouncingBallMain.obj
 0002:000055a0       __unwindtable$?InitialiseObjects@Demo2Main@@UAEHXZ 0043b5a0     Demo2Main.obj
 0002:000055a8       __unwindtable$??0Demo2Main@@QAE@XZ 0043b5a8     Demo2Main.obj
 0002:000055b0       __ehfuncinfo$?InitialiseObjects@Demo2Main@@UAEHXZ 0043b5b0     Demo2Main.obj
 0002:000055d4       __ehfuncinfo$??0Demo2Main@@QAE@XZ 0043b5d4     Demo2Main.obj
 0002:00005600       __unwindtable$??0Demo2Object@@QAE@PAVDemo2Main@@@Z 0043b600     Demo2Object.obj
 0002:00005608       __ehfuncinfo$??0Demo2Object@@QAE@PAVDemo2Main@@@Z 0043b608     Demo2Object.obj
 0002:00005630       __unwindtable$??0Demo3Main@@QAE@XZ 0043b630     Demo3Main.obj
 0002:00005638       __ehfuncinfo$?InitialiseObjects@Demo3Main@@UAEHXZ 0043b638     Demo3Main.obj
 0002:0000565c       __ehfuncinfo$??0Demo3Main@@QAE@XZ 0043b65c     Demo3Main.obj
 0002:00005680       __unwindtable$?InitialiseObjects@Demo3Main@@UAEHXZ 0043b680     Demo3Main.obj
 0002:000056b4       __unwindtable$??0Demo3Object@@QAE@PAVDemo3Main@@HH@Z 0043b6b4     Demo3Object.obj
 0002:000056bc       __ehfuncinfo$??0Demo3Object@@QAE@PAVDemo3Main@@HH@Z 0043b6bc     Demo3Object.obj
 0002:000056e4       __unwindtable$??0Demo3ObjectFinished@@QAE@PAVDemo3Main@@HH@Z 0043b6e4     Demo3ObjectFinished.obj
 0002:000056ec       __ehfuncinfo$??0Demo3ObjectFinished@@QAE@PAVDemo3Main@@HH@Z 0043b6ec     Demo3ObjectFinished.obj
 0002:00005714       __unwindtable$??0Demo4Main@@QAE@XZ 0043b714     Demo4Main.obj
 0002:0000571c       __ehfuncinfo$?InitialiseObjects@Demo4Main@@UAEHXZ 0043b71c     Demo4Main.obj
 0002:00005740       __ehfuncinfo$??0Demo4Main@@QAE@XZ 0043b740     Demo4Main.obj
 0002:00005764       __unwindtable$?InitialiseObjects@Demo4Main@@UAEHXZ 0043b764     Demo4Main.obj
 0002:00005798       __unwindtable$??0Demo4Object@@QAE@PAVDemo4Main@@HH@Z 0043b798     Demo4Object.obj
 0002:000057a0       __ehfuncinfo$??0Demo4Object@@QAE@PAVDemo4Main@@HH@Z 0043b7a0     Demo4Object.obj
 0002:000057c8       __unwindtable$?fire@TurretBasic@@UAEXPAVEnemy@@@Z 0043b7c8     TurretBasic.obj
 0002:000057d0       __unwindtable$??0TurretBasic@@QAE@PAVGame@@PAVGameMain@@H@Z 0043b7d0     TurretBasic.obj
 0002:000057d8       __ehfuncinfo$?fire@TurretBasic@@UAEXPAVEnemy@@@Z 0043b7d8     TurretBasic.obj
 0002:000057fc       __ehfuncinfo$??0TurretBasic@@QAE@PAVGame@@PAVGameMain@@H@Z 0043b7fc     TurretBasic.obj
 0002:00005828       __unwindtable$?fire@TurretCannon@@UAEXPAVEnemy@@@Z 0043b828     TurretCannon.obj
 0002:00005830       __unwindtable$??0TurretCannon@@QAE@PAVGame@@PAVGameMain@@H@Z 0043b830     TurretCannon.obj
 0002:00005838       __ehfuncinfo$?fire@TurretCannon@@UAEXPAVEnemy@@@Z 0043b838     TurretCannon.obj
 0002:0000585c       __ehfuncinfo$??0TurretCannon@@QAE@PAVGame@@PAVGameMain@@H@Z 0043b85c     TurretCannon.obj
 0002:00005888       __unwindtable$?fire@TurretSniper@@UAEXPAVEnemy@@@Z 0043b888     TurretSniper.obj
 0002:00005890       __unwindtable$??0TurretSniper@@QAE@PAVGame@@PAVGameMain@@H@Z 0043b890     TurretSniper.obj
 0002:00005898       __ehfuncinfo$?fire@TurretSniper@@UAEXPAVEnemy@@@Z 0043b898     TurretSniper.obj
 0002:000058bc       __ehfuncinfo$??0TurretSniper@@QAE@PAVGame@@PAVGameMain@@H@Z 0043b8bc     TurretSniper.obj
 0002:000058e8       __unwindtable$?initNewEnemies@WaveManager@@QAEXHQAM@Z 0043b8e8     WaveManager.obj
 0002:000058f0       __unwindtable$?initialise@WaveManager@@QAEXVMapTileManager@@@Z 0043b8f0     WaveManager.obj
 0002:000058f8       __ehfuncinfo$?initNewEnemies@WaveManager@@QAEXHQAM@Z 0043b8f8     WaveManager.obj
 0002:0000591c       __ehfuncinfo$?initialise@WaveManager@@QAEXVMapTileManager@@@Z 0043b91c     WaveManager.obj
 0002:00005948       __ehfuncinfo$??1_Fac_node@std@@QAE@XZ 0043b948     msvcprt:locale0_implib.obj
 0002:00005970       __sehtable$?__scrt_common_main_seh@@YAHXZ 0043b970     MSVCRT:exe_main.obj
 0002:00005990       __sehtable$___scrt_is_nonwritable_in_current_image 0043b990     MSVCRT:utility.obj
 0003:00000a30       ?_Fac_tidy_reg@std@@3U_Fac_tidy_reg_t@1@B 0043ca30     msvcprt:locale0_implib.obj
 0003:00000a34       ?_Fac_head@std@@3PAU_Fac_node@1@A 0043ca34     msvcprt:locale0_implib.obj
 0003:00000a44       ?is_initialized_as_dll@@3_NA 0043ca44     MSVCRT:utility.obj
 0003:00000a45       ?module_local_atexit_table_initialized@@3_NA 0043ca45     MSVCRT:utility.obj
 0003:00000a48       ?module_local_atexit_table@@3U_onexit_table_t@@A 0043ca48     MSVCRT:utility.obj
 0003:00000a54       ?module_local_at_quick_exit_table@@3U_onexit_table_t@@A 0043ca54     MSVCRT:utility.obj
 0003:00000a88       _GS_ExceptionRecord        0043ca88     MSVCRT:gs_report.obj
 0003:00000ad8       _GS_ContextRecord          0043cad8     MSVCRT:gs_report.obj
 0004:00000e5c       .idata$6                   0043de5c     SDL2:SDL2.dll
 0004:00000e72       .idata$6                   0043de72     SDL2_image:SDL2_image.dll
 0004:00000ed2       .idata$6                   0043ded2     SDL2_ttf:SDL2_ttf.dll
 0004:00001d6a       .idata$6                   0043ed6a     msvcprt:MSVCP140.dll
 0004:00001e40       .idata$6                   0043ee40     vcruntime:VCRUNTIME140.dll
 0004:0000221a       .idata$6                   0043f21a     ucrt:api-ms-win-crt-math-l1-1-0.dll
 0004:0000223a       .idata$6                   0043f23a     ucrt:api-ms-win-crt-runtime-l1-1-0.dll
 0004:0000225c       .idata$6                   0043f25c     ucrt:api-ms-win-crt-stdio-l1-1-0.dll
 0004:0000227c       .idata$6                   0043f27c     ucrt:api-ms-win-crt-filesystem-l1-1-0.dll
 0004:000022a2       .idata$6                   0043f2a2     ucrt:api-ms-win-crt-string-l1-1-0.dll
 0004:000022c4       .idata$6                   0043f2c4     ucrt:api-ms-win-crt-utility-l1-1-0.dll
 0004:000022e6       .idata$6                   0043f2e6     ucrt:api-ms-win-crt-time-l1-1-0.dll
 0004:00002306       .idata$6                   0043f306     ucrt:api-ms-win-crt-locale-l1-1-0.dll
 0004:00002328       .idata$6                   0043f328     ucrt:api-ms-win-crt-heap-l1-1-0.dll
 0004:00002488       .idata$6                   0043f488     kernel32:KERNEL32.dll
 0006:00000170       $R000000                   00441170     * linker generated manifest res *
